
x86-kernel:     file format elf32-i386
x86-kernel
architecture: i386, flags 0x00000012:
EXEC_P, HAS_SYMS
start address 0xf0000000

Program Header:
    LOAD off    0x00000080 vaddr 0xf0000000 paddr 0x00100000 align 2**5
         filesz 0x00004a00 memsz 0x00005504 flags rwx
   STACK off    0x00000000 vaddr 0x00000000 paddr 0x00000000 align 2**2
         filesz 0x00000000 memsz 0x00000000 flags rwx

Sections:
Idx Name          Size      VMA       LMA       File off  Algn
  0 .text         00003fc2  f0000000  00100000  00000080  2**4
                  CONTENTS, ALLOC, LOAD, CODE
  1 .rodata       000008fc  f0003fc8  00103fc8  00004048  2**3
                  CONTENTS, ALLOC, LOAD, READONLY, DATA
  2 .data         00000120  f00048e0  001048e0  00004960  2**5
                  CONTENTS, ALLOC, LOAD, DATA
  3 .bss          00000b04  f0004a00  00104a00  00004a80  2**5
                  ALLOC
  4 .note.GNU-stack 00000000  00000000  00000000  00004a80  2**0
                  CONTENTS, READONLY
  5 .comment      00000363  00000000  00000000  00004a80  2**0
                  CONTENTS, READONLY
SYMBOL TABLE:
f0000000 l    d  .text	00000000 
f0003fc8 l    d  .rodata	00000000 
f00048e0 l    d  .data	00000000 
f0004a00 l    d  .bss	00000000 
00000000 l    d  .note.GNU-stack	00000000 
00000000 l    d  .comment	00000000 
00000000 l    d  *ABS*	00000000 
00000000 l    d  *ABS*	00000000 
00000000 l    d  *ABS*	00000000 
00000000 l    df *ABS*	00000000 boot.S
00000000 l    df *ABS*	00000000 boot.S
00000000 l    df *ABS*	00000000 <command line>
00000000 l    df *ABS*	00000000 <built-in>
00000000 l    df *ABS*	00000000 boot.S
f000085a l       .text	00000000 entry
f0000008 l       .text	00000000 multiboot_header
f0000044 l       .text	00000000 gdtr
f0000887 l       .text	00000000 multiboot
f00008c2 l       .text	00000000 mapkernel
f00008d5 l       .text	00000000 mappagedirectory
f00008e8 l       .text	00000000 mapstack
f0000924 l       .text	00000000 map4MBSpace
f0000951 l       .text	00000000 Paging_Enabled
f000096d l       .text	00000000 reloadcs
f0000985 l       .text	00000000 DefaultIntHandlerMsg
f00009a2 l       .text	00000000 DefaultExceptionMsg
f00009c4 l       .text	00000000 ModuleName
00000000 l    df *ABS*	00000000 kernel-main.c
00000000 l    df *ABS*	00000000 syslog.c
00000000 l    df *ABS*	00000000 interrupt.c
f0004a20 l     O .bss	00000040 l_IRQ_Handler
00000000 l    df *ABS*	00000000 mm.c
00000000 l    df *ABS*	00000000 mm_page.c
00000000 l    df *ABS*	00000000 mm_allocator.c
00000000 l    df *ABS*	00000000 mm_pp.c
00000000 l    df *ABS*	00000000 timer.c
00000000 l    df *ABS*	00000000 8259a.c
f00048f4 l     O .data	00000002 l_nPICMask
00000000 l    df *ABS*	00000000 8254.c
00000000 l    df *ABS*	00000000 textmodevideo.c
00000000 l    df *ABS*	00000000 descriptor.c
00000000 l    df *ABS*	00000000 exception.c
00000000 l    df *ABS*	00000000 ctype.c
00000000 l    df *ABS*	00000000 printf.c
f00032b0 l     F .text	000002f0 number
00000000 l    df *ABS*	00000000 scanf.c
f0003e20 l     F .text	0000001f sgetc
f0003e40 l     F .text	00000023 sputc
00000000 l    df *ABS*	00000000 strtol.c
00100000 g       *ABS*	00000000 phys
f0001610 g     F .text	0000001b Interrupt_EnableIRQ
f0002a00 g     F .text	00000030 TextModeVideo_WriteString
f0000c0a g       .text	00000000 EXC_STACKFAULT
f00054fc g     O .bss	00000004 l_sGDT
f0000c34 g       .text	00000000 EXC_GPF
f0000fa1 g       .text	00000000 IRQ_0F
f0000c5e g       .text	00000000 EXC_PAGEFAULT
f0002030 g     F .text	00000087 MM_Alloc
f0000000 g       *ABS*	00000000 virt
f00029c0 g     F .text	00000040 TextModeVideo_DeleteChar
f00012a0 g     F .text	0000000f Syslog_LockInit
f0002b90 g     F .text	0000002a Exception_Debug
f0002c20 g     F .text	0000002a Exception_StackFault
f0003290 g     F .text	0000001e snprintf
f0000dc4 g       .text	00000000 IRQ_06
f0002400 g     F .text	00000023 Timer_Lock
f0004a08 g     O .bss	00000004 l_nVersionMinor
f0002710 g     F .text	00000096 TextModeVideo_Init
f00054e8 g     O .bss	00000004 sTimerLock
f0001d80 g     F .text	000000c8 MM_Page_Map
f00054ec g     O .bss	00000004 nX
f0001c80 g     F .text	0000001e MM_Page_AddFree
f0000a3e g       .text	00000000 EXC_02
f0002ae0 g     F .text	00000033 Descriptor_SetBase
f0003de0 g     F .text	00000035 vsscanf
f0002c50 g     F .text	0000017e Exception_Page
f0000a86 g       .text	00000000 EXC_04
f0002a30 g     F .text	00000017 Descriptor_Init
f0002bc0 g     F .text	0000002a Exception_InvalidOpCode
f0002430 g     F .text	0000001c Timer_Unlock
f0001a70 g     F .text	0000001c MM_Unlock
f0001a40 g     F .text	00000023 MM_Lock
f00048e0 g     O .data	00000004 l_nVersionRevision
f0000014 g       .text	00000000 gdt
f00048e4 g     O .data	0000000e l_nVersionName
f0000cbb g       .text	00000000 IRQ_01
f0002e10 g     F .text	0000047e vsnprintf
f0000bd2 g       .text	00000000 EXC_0B
f0002a50 g     F .text	0000002a Descriptor_SetInterruptGate
f0003e70 g     F .text	000000d4 strtoul
f0001310 g     F .text	000001f7 Interrupt_Init
f0000adf g       .text	00000000 EXC_INVALIDOPCODE
f0000b3b g       .text	00000000 EXC_DOUBLEFAULT
f0000e2e g       .text	00000000 IRQ_08
f0000856 g       .text	00000000 MultibootAddress
f0002200 g     F .text	00000018 MM_KFree
f00012e0 g     F .text	0000001c Syslog_Unlock
f0005500 g     O .bss	00000004 l_sIDT
f0002ab0 g     F .text	0000002a Descriptor_SetCallGate
f0001a90 g     F .text	000001ef MM_Page_Free
f00023b0 g     F .text	00000034 MM_ZeroPageStruct
f0003f50 g     F .text	00000072 strtol
f0001ca0 g     F .text	000000a1 MM_GetPTAddress
f00009e2 g       .text	00000000 EXC_00
f0004bc0 g     O .bss	00000004 l_sMemoryLock
f0004a00 g     O .bss	00000001 g_bQuietMode
f0002dd0 g     F .text	00000031 Exception_GPF
f0000f6c g       .text	00000000 IRQ_0E
f0001f00 g     F .text	00000075 MM_Page_Unmap
f0000d5a g       .text	00000000 IRQ_04
f0001f80 g     F .text	000000a1 MM_Page_Allocate
f0001a30 g     F .text	0000000f MM_LockInit
f00027f0 g     F .text	0000003a TextModeVideo_MoveCursor
f00048f8 g     O .data	00000001 nAttr
f0002310 g     F .text	0000009c MM_Expand
f00024a0 g     F .text	00000073 Timer_AttachTimerHandler
f00035a0 g     F .text	000007fc __v_scanf
f0001630 g     F .text	000003f5 MM_Init
f0000b65 g       .text	00000000 EXC_09
f0002450 g     F .text	0000004a Timer_Init
f0000a62 g       .text	00000000 EXC_03
f00026d0 g     F .text	0000002f PIT_Init
f0002890 g     F .text	0000000e TextModeVideo_ChangeColour
f00015b0 g     F .text	0000005a Interrupt_AttachHandler
f0002170 g     F .text	00000063 MM_Coalesce
f0000fe0 g     F .text	000000f3 Kernel_ParseParameters
f0000b06 g       .text	00000000 EXC_07
f0000b9a g       .text	00000000 EXC_0A
f00009cc g       .text	00000000 DefaultIntHandler
f0004a00 g       .bss	00000000 bss
f0002830 g     F .text	00000058 TextModeVideo_Cls
f0000ecd g       .text	00000000 IRQ_0B
f0000f02 g       .text	00000000 IRQ_0C
f0002700 g     F .text	0000000f PIT_StopTimer
f0002220 g     F .text	000000a4 MM_KExpand
f0003da0 g     F .text	00000038 sscanf
f0004900 g     O .data	00000100 _ctype
f0000cf0 g       .text	00000000 IRQ_02
f00054f0 g     O .bss	00000004 nY
f0001300 g     F .text	0000000f Syslog_Init
f0001e50 g     F .text	000000af MM_Page_MapZeroFill
f00048e0 g       .data	00000000 data
f0002520 g     F .text	00000081 Timer_Handler
f0000e63 g       .text	00000000 IRQ_09
f0002640 g     F .text	00000031 PIC_DisableIRQ
f00020c0 g     F .text	000000a6 MM_Free
f0004a04 g     O .bss	00000004 l_nVersionMajor
f0002bf0 g     F .text	0000002a Exception_Double
f0004ba0 g     O .bss	00000004 l_sSysLogLock
f000004c g       .text	00000000 idt
f0000d8f g       .text	00000000 IRQ_05
f0002600 g     F .text	00000031 PIC_EnableIRQ
f0004be0 g     O .bss	00000800 g_nPP_KernelPTEs
f0000d25 g       .text	00000000 IRQ_03
f000084c g       .text	00000000 idtr
f00010e0 g     F .text	000000c8 Kernel_Main
f00011b0 g     F .text	000000e1 Syslog_Entry
f00053e0 g     O .bss	00000108 g_psPP_Kernel
f0000aaa g       .text	00000000 EXC_05
f00054f4 g     O .bss	00000004 g_pVideo
f0004a01 g     O .bss	00000001 g_bKernelInitDone
f0004a60 g     O .bss	00000140 g_sKernel
f0005504 g       *ABS*	00000000 _end
f0000852 g       .text	00000000 KernelSize
f000097f g       .text	00000000 halt
f0000000 g       .text	00000000 code
f00027b0 g     F .text	00000037 TextModeVideo_PostMMInit
f0003fc8 g       .rodata	00000000 rodata
f0001d50 g     F .text	0000002a MM_GetPTValue
f0002a80 g     F .text	0000002a Descriptor_SetTaskGate
f0002b70 g     F .text	0000001e Descriptor_SetAccess
f0001510 g     F .text	00000092 Interrupt_Handle
f00012b0 g     F .text	00000023 Syslog_Lock
f00025b0 g     F .text	00000049 PIC_Init
f0000000 g       .text	00000000 Start
f0000df9 g       .text	00000000 IRQ_07
f0000e98 g       .text	00000000 IRQ_0A
f00023f0 g     F .text	0000000f Timer_LockInit
f00028a0 g     F .text	0000011c TextModeVideo_WriteChar
f00021e0 g     F .text	00000018 MM_KAlloc
f00022d0 g     F .text	0000003b MM_AllocInit
f0002b20 g     F .text	00000049 Descriptor_SetLimit
f0002680 g     F .text	0000004e PIC_MaskAndAcknowledge
f0000f37 g       .text	00000000 IRQ_0D
f0000c86 g       .text	00000000 IRQ_00
f0000a17 g       .text	00000000 EXC_01
f00054f8 g     O .bss	00000004 nPos


Disassembly of section .text:

f0000000 <Start>:
f0000000:	e9 55 08 00 00       	jmp    f000085a <entry>
f0000005:	8d 76 00             	lea    0x0(%esi),%esi

f0000008 <multiboot_header>:
f0000008:	02 b0 ad 1b 03 00    	add    0x31bad(%eax),%dh
f000000e:	00 00                	add    %al,(%eax)
f0000010:	fb                   	sti    
f0000011:	4f                   	dec    %edi
f0000012:	52                   	push   %edx
f0000013:	e4 00                	in     $0x0,%al

f0000014 <gdt>:
	...
f000001c:	ff                   	(bad)  
f000001d:	ff 00                	incl   (%eax)
f000001f:	00 00                	add    %al,(%eax)
f0000021:	9a cf 00 ff ff 00 00 	lcall  $0x0,$0xffff00cf
f0000028:	00 92 cf 00 00 00    	add    %dl,0xcf(%edx)
	...

f0000044 <gdtr>:
f0000044:	2f                   	das    
f0000045:	00 14 00             	add    %dl,(%eax,%eax,1)
f0000048:	00 f0                	add    %dh,%al
f000004a:	89 f6                	mov    %esi,%esi

f000004c <idt>:
	...

f000084c <idtr>:
f000084c:	ff 07                	incl   (%edi)
f000084e:	4c                   	dec    %esp
f000084f:	00 00                	add    %al,(%eax)
f0000851:	f0 00 00             	lock add %al,(%eax)

f0000852 <KernelSize>:
f0000852:	00 00                	add    %al,(%eax)
	...

f0000856 <MultibootAddress>:
f0000856:	00 00                	add    %al,(%eax)
	...

f000085a <entry>:
f000085a:	bf 04 55 00 f0       	mov    $0xf0005504,%edi
f000085f:	81 ef 00 00 00 f0    	sub    $0xf0000000,%edi
f0000865:	81 c7 ff 0f 00 00    	add    $0xfff,%edi
f000086b:	c1 ef 0c             	shr    $0xc,%edi
f000086e:	89 3d 52 08 10 00    	mov    %edi,0x100852
f0000874:	bf 00 20 21 00       	mov    $0x212000,%edi
f0000879:	89 fc                	mov    %edi,%esp
f000087b:	3d 02 b0 ad 2b       	cmp    $0x2badb002,%eax
f0000880:	74 05                	je     f0000887 <multiboot>
f0000882:	e9 f8 00 00 00       	jmp    f000097f <halt>

f0000887 <multiboot>:
f0000887:	89 1d 56 08 10 00    	mov    %ebx,0x100856
f000088d:	bf 00 00 20 00       	mov    $0x200000,%edi
f0000892:	b9 00 04 00 00       	mov    $0x400,%ecx
f0000897:	b8 02 00 00 00       	mov    $0x2,%eax
f000089c:	fc                   	cld    
f000089d:	f3 ab                	repz stos %eax,%es:(%edi)
f000089f:	bf 00 10 20 00       	mov    $0x201000,%edi
f00008a4:	b9 00 08 00 00       	mov    $0x800,%ecx
f00008a9:	b8 00 00 00 00       	mov    $0x0,%eax
f00008ae:	fc                   	cld    
f00008af:	f3 ab                	repz stos %eax,%es:(%edi)
f00008b1:	bf 00 10 20 00       	mov    $0x201000,%edi
f00008b6:	8b 0d 52 08 10 00    	mov    0x100852,%ecx
f00008bc:	b8 03 00 10 00       	mov    $0x100003,%eax
f00008c1:	fc                   	cld    

f00008c2 <mapkernel>:
f00008c2:	ab                   	stos   %eax,%es:(%edi)
f00008c3:	05 00 10 00 00       	add    $0x1000,%eax
f00008c8:	e2 f8                	loop   f00008c2 <mapkernel>
f00008ca:	b9 01 00 00 00       	mov    $0x1,%ecx
f00008cf:	b8 03 00 20 00       	mov    $0x200003,%eax
f00008d4:	fc                   	cld    

f00008d5 <mappagedirectory>:
f00008d5:	ab                   	stos   %eax,%es:(%edi)
f00008d6:	05 00 10 00 00       	add    $0x1000,%eax
f00008db:	e2 f8                	loop   f00008d5 <mappagedirectory>
f00008dd:	b9 10 00 00 00       	mov    $0x10,%ecx
f00008e2:	b8 03 20 20 00       	mov    $0x202003,%eax
f00008e7:	fc                   	cld    

f00008e8 <mapstack>:
f00008e8:	ab                   	stos   %eax,%es:(%edi)
f00008e9:	05 00 10 00 00       	add    $0x1000,%eax
f00008ee:	e2 f8                	loop   f00008e8 <mapstack>
f00008f0:	b8 03 10 20 00       	mov    $0x201003,%eax
f00008f5:	bf 00 00 20 00       	mov    $0x200000,%edi
f00008fa:	81 c7 00 0f 00 00    	add    $0xf00,%edi
f0000900:	89 07                	mov    %eax,(%edi)
f0000902:	b8 03 00 20 00       	mov    $0x200003,%eax
f0000907:	bf 00 00 20 00       	mov    $0x200000,%edi
f000090c:	81 c7 fc 0f 00 00    	add    $0xffc,%edi
f0000912:	89 07                	mov    %eax,(%edi)
f0000914:	bf 00 20 21 00       	mov    $0x212000,%edi
f0000919:	b9 00 04 00 00       	mov    $0x400,%ecx
f000091e:	b8 03 00 00 00       	mov    $0x3,%eax
f0000923:	fc                   	cld    

f0000924 <map4MBSpace>:
f0000924:	ab                   	stos   %eax,%es:(%edi)
f0000925:	05 00 10 00 00       	add    $0x1000,%eax
f000092a:	e2 f8                	loop   f0000924 <map4MBSpace>
f000092c:	b8 03 20 21 00       	mov    $0x212003,%eax
f0000931:	bf 00 00 20 00       	mov    $0x200000,%edi
f0000936:	89 07                	mov    %eax,(%edi)
f0000938:	b8 00 00 20 00       	mov    $0x200000,%eax
f000093d:	0f 22 d8             	mov    %eax,%cr3
f0000940:	0f 20 c0             	mov    %cr0,%eax
f0000943:	0d 00 00 00 80       	or     $0x80000000,%eax
f0000948:	0f 22 c0             	mov    %eax,%cr0
f000094b:	68 51 09 00 f0       	push   $0xf0000951
f0000950:	c3                   	ret    

f0000951 <Paging_Enabled>:
f0000951:	0f 01 15 44 00 00 f0 	lgdtl  0xf0000044
f0000958:	66 b8 10 00          	mov    $0x10,%ax
f000095c:	8e d8                	mov    %eax,%ds
f000095e:	8e c0                	mov    %eax,%es
f0000960:	8e e0                	mov    %eax,%fs
f0000962:	8e e8                	mov    %eax,%gs
f0000964:	8e d0                	mov    %eax,%ss
f0000966:	ea 6d 09 00 f0 08 00 	ljmp   $0x8,$0xf000096d

f000096d <reloadcs>:
f000096d:	b8 00 e0 df ef       	mov    $0xefdfe000,%eax
f0000972:	01 c4                	add    %eax,%esp
f0000974:	a1 56 08 00 f0       	mov    0xf0000856,%eax
f0000979:	50                   	push   %eax
f000097a:	e8 61 07 00 00       	call   f00010e0 <Kernel_Main>

f000097f <halt>:
f000097f:	fa                   	cli    
f0000980:	e9 fa ff ff ff       	jmp    f000097f <halt>

f0000985 <DefaultIntHandlerMsg>:
f0000985:	55                   	push   %ebp
f0000986:	6e                   	outsb  %ds:(%esi),(%dx)
f0000987:	6b 6e 6f 77          	imul   $0x77,0x6f(%esi),%ebp
f000098b:	6e                   	outsb  %ds:(%esi),(%dx)
f000098c:	20 69 6e             	and    %ch,0x6e(%ecx)
f000098f:	74 65                	je     f00009f6 <EXC_00+0x14>
f0000991:	72 72                	jb     f0000a05 <EXC_00+0x23>
f0000993:	75 70                	jne    f0000a05 <EXC_00+0x23>
f0000995:	74 20                	je     f00009b7 <DefaultExceptionMsg+0x15>
f0000997:	2d 20 48 61 6c       	sub    $0x6c614820,%eax
f000099c:	74 69                	je     f0000a07 <EXC_00+0x25>
f000099e:	6e                   	outsb  %ds:(%esi),(%dx)
f000099f:	67 0a 00             	addr16 or (%bx,%si),%al

f00009a2 <DefaultExceptionMsg>:
f00009a2:	55                   	push   %ebp
f00009a3:	6e                   	outsb  %ds:(%esi),(%dx)
f00009a4:	68 61 6e 64 6c       	push   $0x6c646e61
f00009a9:	65 64 20 45 78       	and    %al,%fs:%gs:0x78(%ebp)
f00009ae:	63 65 70             	arpl   %sp,0x70(%ebp)
f00009b1:	74 69                	je     f0000a1c <EXC_01+0x5>
f00009b3:	6f                   	outsl  %ds:(%esi),(%dx)
f00009b4:	6e                   	outsb  %ds:(%esi),(%dx)
f00009b5:	20 25 64 20 2d 20    	and    %ah,0x202d2064
f00009bb:	48                   	dec    %eax
f00009bc:	61                   	popa   
f00009bd:	6c                   	insb   (%dx),%es:(%edi)
f00009be:	74 69                	je     f0000a29 <EXC_01+0x12>
f00009c0:	6e                   	outsb  %ds:(%esi),(%dx)
f00009c1:	67 0a 00             	addr16 or (%bx,%si),%al

f00009c4 <ModuleName>:
f00009c4:	42                   	inc    %edx
f00009c5:	4f                   	dec    %edi
f00009c6:	4f                   	dec    %edi
f00009c7:	54                   	push   %esp
f00009c8:	2e                   	cs
f00009c9:	53                   	push   %ebx
f00009ca:	00 90 6a 02 68 85    	add    %dl,0x8568026a(%eax)

f00009cc <DefaultIntHandler>:
f00009cc:	6a 02                	push   $0x2
f00009ce:	68 85 09 00 f0       	push   $0xf0000985
f00009d3:	68 c4 09 00 f0       	push   $0xf00009c4
f00009d8:	e8 d3 07 00 00       	call   f00011b0 <Syslog_Entry>
f00009dd:	e9 9d ff ff ff       	jmp    f000097f <halt>

f00009e2 <EXC_00>:
f00009e2:	fc                   	cld    
f00009e3:	1e                   	push   %ds
f00009e4:	06                   	push   %es
f00009e5:	0f a0                	push   %fs
f00009e7:	0f a8                	push   %gs
f00009e9:	50                   	push   %eax
f00009ea:	53                   	push   %ebx
f00009eb:	51                   	push   %ecx
f00009ec:	52                   	push   %edx
f00009ed:	55                   	push   %ebp
f00009ee:	56                   	push   %esi
f00009ef:	57                   	push   %edi
f00009f0:	54                   	push   %esp
f00009f1:	6a 00                	push   $0x0
f00009f3:	68 a2 09 00 f0       	push   $0xf00009a2
f00009f8:	68 c4 09 00 f0       	push   $0xf00009c4
f00009fd:	6a 02                	push   $0x2
f00009ff:	e8 ac 07 00 00       	call   f00011b0 <Syslog_Entry>
f0000a04:	fa                   	cli    
f0000a05:	f4                   	hlt    
f0000a06:	83 c4 04             	add    $0x4,%esp
f0000a09:	5f                   	pop    %edi
f0000a0a:	5e                   	pop    %esi
f0000a0b:	5d                   	pop    %ebp
f0000a0c:	5a                   	pop    %edx
f0000a0d:	59                   	pop    %ecx
f0000a0e:	5b                   	pop    %ebx
f0000a0f:	58                   	pop    %eax
f0000a10:	0f a9                	pop    %gs
f0000a12:	0f a1                	pop    %fs
f0000a14:	07                   	pop    %es
f0000a15:	1f                   	pop    %ds
f0000a16:	cf                   	iret   

f0000a17 <EXC_01>:
f0000a17:	fc                   	cld    
f0000a18:	1e                   	push   %ds
f0000a19:	06                   	push   %es
f0000a1a:	0f a0                	push   %fs
f0000a1c:	0f a8                	push   %gs
f0000a1e:	50                   	push   %eax
f0000a1f:	53                   	push   %ebx
f0000a20:	51                   	push   %ecx
f0000a21:	52                   	push   %edx
f0000a22:	55                   	push   %ebp
f0000a23:	56                   	push   %esi
f0000a24:	57                   	push   %edi
f0000a25:	54                   	push   %esp
f0000a26:	e8 65 21 00 00       	call   f0002b90 <Exception_Debug>
f0000a2b:	fa                   	cli    
f0000a2c:	f4                   	hlt    
f0000a2d:	83 c4 04             	add    $0x4,%esp
f0000a30:	5f                   	pop    %edi
f0000a31:	5e                   	pop    %esi
f0000a32:	5d                   	pop    %ebp
f0000a33:	5a                   	pop    %edx
f0000a34:	59                   	pop    %ecx
f0000a35:	5b                   	pop    %ebx
f0000a36:	58                   	pop    %eax
f0000a37:	0f a9                	pop    %gs
f0000a39:	0f a1                	pop    %fs
f0000a3b:	07                   	pop    %es
f0000a3c:	1f                   	pop    %ds
f0000a3d:	cf                   	iret   

f0000a3e <EXC_02>:
f0000a3e:	fc                   	cld    
f0000a3f:	1e                   	push   %ds
f0000a40:	06                   	push   %es
f0000a41:	0f a0                	push   %fs
f0000a43:	0f a8                	push   %gs
f0000a45:	50                   	push   %eax
f0000a46:	53                   	push   %ebx
f0000a47:	51                   	push   %ecx
f0000a48:	52                   	push   %edx
f0000a49:	55                   	push   %ebp
f0000a4a:	56                   	push   %esi
f0000a4b:	57                   	push   %edi
f0000a4c:	54                   	push   %esp
f0000a4d:	6a 02                	push   $0x2
f0000a4f:	68 a2 09 00 f0       	push   $0xf00009a2
f0000a54:	68 c4 09 00 f0       	push   $0xf00009c4
f0000a59:	6a 02                	push   $0x2
f0000a5b:	e8 50 07 00 00       	call   f00011b0 <Syslog_Entry>
f0000a60:	fa                   	cli    
f0000a61:	f4                   	hlt    

f0000a62 <EXC_03>:
f0000a62:	fc                   	cld    
f0000a63:	1e                   	push   %ds
f0000a64:	06                   	push   %es
f0000a65:	0f a0                	push   %fs
f0000a67:	0f a8                	push   %gs
f0000a69:	50                   	push   %eax
f0000a6a:	53                   	push   %ebx
f0000a6b:	51                   	push   %ecx
f0000a6c:	52                   	push   %edx
f0000a6d:	55                   	push   %ebp
f0000a6e:	56                   	push   %esi
f0000a6f:	57                   	push   %edi
f0000a70:	54                   	push   %esp
f0000a71:	6a 03                	push   $0x3
f0000a73:	68 a2 09 00 f0       	push   $0xf00009a2
f0000a78:	68 c4 09 00 f0       	push   $0xf00009c4
f0000a7d:	6a 02                	push   $0x2
f0000a7f:	e8 2c 07 00 00       	call   f00011b0 <Syslog_Entry>
f0000a84:	fa                   	cli    
f0000a85:	f4                   	hlt    

f0000a86 <EXC_04>:
f0000a86:	fc                   	cld    
f0000a87:	1e                   	push   %ds
f0000a88:	06                   	push   %es
f0000a89:	0f a0                	push   %fs
f0000a8b:	0f a8                	push   %gs
f0000a8d:	50                   	push   %eax
f0000a8e:	53                   	push   %ebx
f0000a8f:	51                   	push   %ecx
f0000a90:	52                   	push   %edx
f0000a91:	55                   	push   %ebp
f0000a92:	56                   	push   %esi
f0000a93:	57                   	push   %edi
f0000a94:	54                   	push   %esp
f0000a95:	6a 04                	push   $0x4
f0000a97:	68 a2 09 00 f0       	push   $0xf00009a2
f0000a9c:	68 c4 09 00 f0       	push   $0xf00009c4
f0000aa1:	6a 02                	push   $0x2
f0000aa3:	e8 08 07 00 00       	call   f00011b0 <Syslog_Entry>
f0000aa8:	fa                   	cli    
f0000aa9:	f4                   	hlt    

f0000aaa <EXC_05>:
f0000aaa:	fc                   	cld    
f0000aab:	1e                   	push   %ds
f0000aac:	06                   	push   %es
f0000aad:	0f a0                	push   %fs
f0000aaf:	0f a8                	push   %gs
f0000ab1:	50                   	push   %eax
f0000ab2:	53                   	push   %ebx
f0000ab3:	51                   	push   %ecx
f0000ab4:	52                   	push   %edx
f0000ab5:	55                   	push   %ebp
f0000ab6:	56                   	push   %esi
f0000ab7:	57                   	push   %edi
f0000ab8:	54                   	push   %esp
f0000ab9:	6a 05                	push   $0x5
f0000abb:	68 a2 09 00 f0       	push   $0xf00009a2
f0000ac0:	68 c4 09 00 f0       	push   $0xf00009c4
f0000ac5:	6a 02                	push   $0x2
f0000ac7:	e8 e4 06 00 00       	call   f00011b0 <Syslog_Entry>
f0000acc:	fa                   	cli    
f0000acd:	f4                   	hlt    
f0000ace:	83 c4 04             	add    $0x4,%esp
f0000ad1:	5f                   	pop    %edi
f0000ad2:	5e                   	pop    %esi
f0000ad3:	5d                   	pop    %ebp
f0000ad4:	5a                   	pop    %edx
f0000ad5:	59                   	pop    %ecx
f0000ad6:	5b                   	pop    %ebx
f0000ad7:	58                   	pop    %eax
f0000ad8:	0f a9                	pop    %gs
f0000ada:	0f a1                	pop    %fs
f0000adc:	07                   	pop    %es
f0000add:	1f                   	pop    %ds
f0000ade:	cf                   	iret   

f0000adf <EXC_INVALIDOPCODE>:
f0000adf:	fc                   	cld    
f0000ae0:	1e                   	push   %ds
f0000ae1:	06                   	push   %es
f0000ae2:	0f a0                	push   %fs
f0000ae4:	0f a8                	push   %gs
f0000ae6:	50                   	push   %eax
f0000ae7:	53                   	push   %ebx
f0000ae8:	51                   	push   %ecx
f0000ae9:	52                   	push   %edx
f0000aea:	55                   	push   %ebp
f0000aeb:	56                   	push   %esi
f0000aec:	57                   	push   %edi
f0000aed:	54                   	push   %esp
f0000aee:	e8 cd 20 00 00       	call   f0002bc0 <Exception_InvalidOpCode>
f0000af3:	fa                   	cli    
f0000af4:	f4                   	hlt    
f0000af5:	83 c4 04             	add    $0x4,%esp
f0000af8:	5f                   	pop    %edi
f0000af9:	5e                   	pop    %esi
f0000afa:	5d                   	pop    %ebp
f0000afb:	5a                   	pop    %edx
f0000afc:	59                   	pop    %ecx
f0000afd:	5b                   	pop    %ebx
f0000afe:	58                   	pop    %eax
f0000aff:	0f a9                	pop    %gs
f0000b01:	0f a1                	pop    %fs
f0000b03:	07                   	pop    %es
f0000b04:	1f                   	pop    %ds
f0000b05:	cf                   	iret   

f0000b06 <EXC_07>:
f0000b06:	fc                   	cld    
f0000b07:	1e                   	push   %ds
f0000b08:	06                   	push   %es
f0000b09:	0f a0                	push   %fs
f0000b0b:	0f a8                	push   %gs
f0000b0d:	50                   	push   %eax
f0000b0e:	53                   	push   %ebx
f0000b0f:	51                   	push   %ecx
f0000b10:	52                   	push   %edx
f0000b11:	55                   	push   %ebp
f0000b12:	56                   	push   %esi
f0000b13:	57                   	push   %edi
f0000b14:	54                   	push   %esp
f0000b15:	6a 07                	push   $0x7
f0000b17:	68 a2 09 00 f0       	push   $0xf00009a2
f0000b1c:	68 c4 09 00 f0       	push   $0xf00009c4
f0000b21:	6a 02                	push   $0x2
f0000b23:	e8 88 06 00 00       	call   f00011b0 <Syslog_Entry>
f0000b28:	fa                   	cli    
f0000b29:	f4                   	hlt    
f0000b2a:	83 c4 04             	add    $0x4,%esp
f0000b2d:	5f                   	pop    %edi
f0000b2e:	5e                   	pop    %esi
f0000b2f:	5d                   	pop    %ebp
f0000b30:	5a                   	pop    %edx
f0000b31:	59                   	pop    %ecx
f0000b32:	5b                   	pop    %ebx
f0000b33:	58                   	pop    %eax
f0000b34:	0f a9                	pop    %gs
f0000b36:	0f a1                	pop    %fs
f0000b38:	07                   	pop    %es
f0000b39:	1f                   	pop    %ds
f0000b3a:	cf                   	iret   

f0000b3b <EXC_DOUBLEFAULT>:
f0000b3b:	fc                   	cld    
f0000b3c:	1e                   	push   %ds
f0000b3d:	06                   	push   %es
f0000b3e:	0f a0                	push   %fs
f0000b40:	0f a8                	push   %gs
f0000b42:	50                   	push   %eax
f0000b43:	53                   	push   %ebx
f0000b44:	51                   	push   %ecx
f0000b45:	52                   	push   %edx
f0000b46:	55                   	push   %ebp
f0000b47:	56                   	push   %esi
f0000b48:	57                   	push   %edi
f0000b49:	54                   	push   %esp
f0000b4a:	e8 a1 20 00 00       	call   f0002bf0 <Exception_Double>
f0000b4f:	fa                   	cli    
f0000b50:	f4                   	hlt    
f0000b51:	83 c4 04             	add    $0x4,%esp
f0000b54:	5f                   	pop    %edi
f0000b55:	5e                   	pop    %esi
f0000b56:	5d                   	pop    %ebp
f0000b57:	5a                   	pop    %edx
f0000b58:	59                   	pop    %ecx
f0000b59:	5b                   	pop    %ebx
f0000b5a:	58                   	pop    %eax
f0000b5b:	0f a9                	pop    %gs
f0000b5d:	0f a1                	pop    %fs
f0000b5f:	07                   	pop    %es
f0000b60:	1f                   	pop    %ds
f0000b61:	83 c4 04             	add    $0x4,%esp
f0000b64:	cf                   	iret   

f0000b65 <EXC_09>:
f0000b65:	fc                   	cld    
f0000b66:	1e                   	push   %ds
f0000b67:	06                   	push   %es
f0000b68:	0f a0                	push   %fs
f0000b6a:	0f a8                	push   %gs
f0000b6c:	50                   	push   %eax
f0000b6d:	53                   	push   %ebx
f0000b6e:	51                   	push   %ecx
f0000b6f:	52                   	push   %edx
f0000b70:	55                   	push   %ebp
f0000b71:	56                   	push   %esi
f0000b72:	57                   	push   %edi
f0000b73:	54                   	push   %esp
f0000b74:	6a 09                	push   $0x9
f0000b76:	68 a2 09 00 f0       	push   $0xf00009a2
f0000b7b:	68 c4 09 00 f0       	push   $0xf00009c4
f0000b80:	6a 02                	push   $0x2
f0000b82:	e8 29 06 00 00       	call   f00011b0 <Syslog_Entry>
f0000b87:	fa                   	cli    
f0000b88:	f4                   	hlt    
f0000b89:	83 c4 04             	add    $0x4,%esp
f0000b8c:	5f                   	pop    %edi
f0000b8d:	5e                   	pop    %esi
f0000b8e:	5d                   	pop    %ebp
f0000b8f:	5a                   	pop    %edx
f0000b90:	59                   	pop    %ecx
f0000b91:	5b                   	pop    %ebx
f0000b92:	58                   	pop    %eax
f0000b93:	0f a9                	pop    %gs
f0000b95:	0f a1                	pop    %fs
f0000b97:	07                   	pop    %es
f0000b98:	1f                   	pop    %ds
f0000b99:	cf                   	iret   

f0000b9a <EXC_0A>:
f0000b9a:	fc                   	cld    
f0000b9b:	1e                   	push   %ds
f0000b9c:	06                   	push   %es
f0000b9d:	0f a0                	push   %fs
f0000b9f:	0f a8                	push   %gs
f0000ba1:	50                   	push   %eax
f0000ba2:	53                   	push   %ebx
f0000ba3:	51                   	push   %ecx
f0000ba4:	52                   	push   %edx
f0000ba5:	55                   	push   %ebp
f0000ba6:	56                   	push   %esi
f0000ba7:	57                   	push   %edi
f0000ba8:	54                   	push   %esp
f0000ba9:	6a 0a                	push   $0xa
f0000bab:	68 a2 09 00 f0       	push   $0xf00009a2
f0000bb0:	68 c4 09 00 f0       	push   $0xf00009c4
f0000bb5:	6a 02                	push   $0x2
f0000bb7:	e8 f4 05 00 00       	call   f00011b0 <Syslog_Entry>
f0000bbc:	fa                   	cli    
f0000bbd:	f4                   	hlt    
f0000bbe:	83 c4 04             	add    $0x4,%esp
f0000bc1:	5f                   	pop    %edi
f0000bc2:	5e                   	pop    %esi
f0000bc3:	5d                   	pop    %ebp
f0000bc4:	5a                   	pop    %edx
f0000bc5:	59                   	pop    %ecx
f0000bc6:	5b                   	pop    %ebx
f0000bc7:	58                   	pop    %eax
f0000bc8:	0f a9                	pop    %gs
f0000bca:	0f a1                	pop    %fs
f0000bcc:	07                   	pop    %es
f0000bcd:	1f                   	pop    %ds
f0000bce:	83 c4 04             	add    $0x4,%esp
f0000bd1:	cf                   	iret   

f0000bd2 <EXC_0B>:
f0000bd2:	fc                   	cld    
f0000bd3:	1e                   	push   %ds
f0000bd4:	06                   	push   %es
f0000bd5:	0f a0                	push   %fs
f0000bd7:	0f a8                	push   %gs
f0000bd9:	50                   	push   %eax
f0000bda:	53                   	push   %ebx
f0000bdb:	51                   	push   %ecx
f0000bdc:	52                   	push   %edx
f0000bdd:	55                   	push   %ebp
f0000bde:	56                   	push   %esi
f0000bdf:	57                   	push   %edi
f0000be0:	54                   	push   %esp
f0000be1:	6a 0b                	push   $0xb
f0000be3:	68 a2 09 00 f0       	push   $0xf00009a2
f0000be8:	68 c4 09 00 f0       	push   $0xf00009c4
f0000bed:	6a 02                	push   $0x2
f0000bef:	e8 bc 05 00 00       	call   f00011b0 <Syslog_Entry>
f0000bf4:	fa                   	cli    
f0000bf5:	f4                   	hlt    
f0000bf6:	83 c4 04             	add    $0x4,%esp
f0000bf9:	5f                   	pop    %edi
f0000bfa:	5e                   	pop    %esi
f0000bfb:	5d                   	pop    %ebp
f0000bfc:	5a                   	pop    %edx
f0000bfd:	59                   	pop    %ecx
f0000bfe:	5b                   	pop    %ebx
f0000bff:	58                   	pop    %eax
f0000c00:	0f a9                	pop    %gs
f0000c02:	0f a1                	pop    %fs
f0000c04:	07                   	pop    %es
f0000c05:	1f                   	pop    %ds
f0000c06:	83 c4 04             	add    $0x4,%esp
f0000c09:	cf                   	iret   

f0000c0a <EXC_STACKFAULT>:
f0000c0a:	fc                   	cld    
f0000c0b:	1e                   	push   %ds
f0000c0c:	06                   	push   %es
f0000c0d:	0f a0                	push   %fs
f0000c0f:	0f a8                	push   %gs
f0000c11:	50                   	push   %eax
f0000c12:	53                   	push   %ebx
f0000c13:	51                   	push   %ecx
f0000c14:	52                   	push   %edx
f0000c15:	55                   	push   %ebp
f0000c16:	56                   	push   %esi
f0000c17:	57                   	push   %edi
f0000c18:	54                   	push   %esp
f0000c19:	e8 02 20 00 00       	call   f0002c20 <Exception_StackFault>
f0000c1e:	fa                   	cli    
f0000c1f:	f4                   	hlt    
f0000c20:	83 c4 04             	add    $0x4,%esp
f0000c23:	5f                   	pop    %edi
f0000c24:	5e                   	pop    %esi
f0000c25:	5d                   	pop    %ebp
f0000c26:	5a                   	pop    %edx
f0000c27:	59                   	pop    %ecx
f0000c28:	5b                   	pop    %ebx
f0000c29:	58                   	pop    %eax
f0000c2a:	0f a9                	pop    %gs
f0000c2c:	0f a1                	pop    %fs
f0000c2e:	07                   	pop    %es
f0000c2f:	1f                   	pop    %ds
f0000c30:	83 c4 04             	add    $0x4,%esp
f0000c33:	cf                   	iret   

f0000c34 <EXC_GPF>:
f0000c34:	fc                   	cld    
f0000c35:	1e                   	push   %ds
f0000c36:	06                   	push   %es
f0000c37:	0f a0                	push   %fs
f0000c39:	0f a8                	push   %gs
f0000c3b:	50                   	push   %eax
f0000c3c:	53                   	push   %ebx
f0000c3d:	51                   	push   %ecx
f0000c3e:	52                   	push   %edx
f0000c3f:	55                   	push   %ebp
f0000c40:	56                   	push   %esi
f0000c41:	57                   	push   %edi
f0000c42:	54                   	push   %esp
f0000c43:	e8 88 21 00 00       	call   f0002dd0 <Exception_GPF>
f0000c48:	fa                   	cli    
f0000c49:	f4                   	hlt    
f0000c4a:	83 c4 04             	add    $0x4,%esp
f0000c4d:	5f                   	pop    %edi
f0000c4e:	5e                   	pop    %esi
f0000c4f:	5d                   	pop    %ebp
f0000c50:	5a                   	pop    %edx
f0000c51:	59                   	pop    %ecx
f0000c52:	5b                   	pop    %ebx
f0000c53:	58                   	pop    %eax
f0000c54:	0f a9                	pop    %gs
f0000c56:	0f a1                	pop    %fs
f0000c58:	07                   	pop    %es
f0000c59:	1f                   	pop    %ds
f0000c5a:	83 c4 04             	add    $0x4,%esp
f0000c5d:	cf                   	iret   

f0000c5e <EXC_PAGEFAULT>:
f0000c5e:	fc                   	cld    
f0000c5f:	1e                   	push   %ds
f0000c60:	06                   	push   %es
f0000c61:	0f a0                	push   %fs
f0000c63:	0f a8                	push   %gs
f0000c65:	50                   	push   %eax
f0000c66:	53                   	push   %ebx
f0000c67:	51                   	push   %ecx
f0000c68:	52                   	push   %edx
f0000c69:	55                   	push   %ebp
f0000c6a:	56                   	push   %esi
f0000c6b:	57                   	push   %edi
f0000c6c:	54                   	push   %esp
f0000c6d:	e8 de 1f 00 00       	call   f0002c50 <Exception_Page>
f0000c72:	83 c4 04             	add    $0x4,%esp
f0000c75:	5f                   	pop    %edi
f0000c76:	5e                   	pop    %esi
f0000c77:	5d                   	pop    %ebp
f0000c78:	5a                   	pop    %edx
f0000c79:	59                   	pop    %ecx
f0000c7a:	5b                   	pop    %ebx
f0000c7b:	58                   	pop    %eax
f0000c7c:	0f a9                	pop    %gs
f0000c7e:	0f a1                	pop    %fs
f0000c80:	07                   	pop    %es
f0000c81:	1f                   	pop    %ds
f0000c82:	83 c4 04             	add    $0x4,%esp
f0000c85:	cf                   	iret   

f0000c86 <IRQ_00>:
f0000c86:	fa                   	cli    
f0000c87:	fc                   	cld    
f0000c88:	1e                   	push   %ds
f0000c89:	06                   	push   %es
f0000c8a:	0f a0                	push   %fs
f0000c8c:	0f a8                	push   %gs
f0000c8e:	50                   	push   %eax
f0000c8f:	53                   	push   %ebx
f0000c90:	51                   	push   %ecx
f0000c91:	52                   	push   %edx
f0000c92:	55                   	push   %ebp
f0000c93:	56                   	push   %esi
f0000c94:	57                   	push   %edi
f0000c95:	16                   	push   %ss
f0000c96:	54                   	push   %esp
f0000c97:	54                   	push   %esp
f0000c98:	6a 00                	push   $0x0
f0000c9a:	e8 71 08 00 00       	call   f0001510 <Interrupt_Handle>
f0000c9f:	83 c4 04             	add    $0x4,%esp
f0000ca2:	83 c4 04             	add    $0x4,%esp
f0000ca5:	0f b2 24 24          	lss    (%esp),%esp
f0000ca9:	83 c4 04             	add    $0x4,%esp
f0000cac:	5f                   	pop    %edi
f0000cad:	5e                   	pop    %esi
f0000cae:	5d                   	pop    %ebp
f0000caf:	5a                   	pop    %edx
f0000cb0:	59                   	pop    %ecx
f0000cb1:	5b                   	pop    %ebx
f0000cb2:	58                   	pop    %eax
f0000cb3:	0f a9                	pop    %gs
f0000cb5:	0f a1                	pop    %fs
f0000cb7:	07                   	pop    %es
f0000cb8:	1f                   	pop    %ds
f0000cb9:	fb                   	sti    
f0000cba:	cf                   	iret   

f0000cbb <IRQ_01>:
f0000cbb:	fa                   	cli    
f0000cbc:	fc                   	cld    
f0000cbd:	1e                   	push   %ds
f0000cbe:	06                   	push   %es
f0000cbf:	0f a0                	push   %fs
f0000cc1:	0f a8                	push   %gs
f0000cc3:	50                   	push   %eax
f0000cc4:	53                   	push   %ebx
f0000cc5:	51                   	push   %ecx
f0000cc6:	52                   	push   %edx
f0000cc7:	55                   	push   %ebp
f0000cc8:	56                   	push   %esi
f0000cc9:	57                   	push   %edi
f0000cca:	16                   	push   %ss
f0000ccb:	54                   	push   %esp
f0000ccc:	54                   	push   %esp
f0000ccd:	6a 01                	push   $0x1
f0000ccf:	e8 3c 08 00 00       	call   f0001510 <Interrupt_Handle>
f0000cd4:	83 c4 04             	add    $0x4,%esp
f0000cd7:	83 c4 04             	add    $0x4,%esp
f0000cda:	0f b2 24 24          	lss    (%esp),%esp
f0000cde:	83 c4 04             	add    $0x4,%esp
f0000ce1:	5f                   	pop    %edi
f0000ce2:	5e                   	pop    %esi
f0000ce3:	5d                   	pop    %ebp
f0000ce4:	5a                   	pop    %edx
f0000ce5:	59                   	pop    %ecx
f0000ce6:	5b                   	pop    %ebx
f0000ce7:	58                   	pop    %eax
f0000ce8:	0f a9                	pop    %gs
f0000cea:	0f a1                	pop    %fs
f0000cec:	07                   	pop    %es
f0000ced:	1f                   	pop    %ds
f0000cee:	fb                   	sti    
f0000cef:	cf                   	iret   

f0000cf0 <IRQ_02>:
f0000cf0:	fa                   	cli    
f0000cf1:	fc                   	cld    
f0000cf2:	1e                   	push   %ds
f0000cf3:	06                   	push   %es
f0000cf4:	0f a0                	push   %fs
f0000cf6:	0f a8                	push   %gs
f0000cf8:	50                   	push   %eax
f0000cf9:	53                   	push   %ebx
f0000cfa:	51                   	push   %ecx
f0000cfb:	52                   	push   %edx
f0000cfc:	55                   	push   %ebp
f0000cfd:	56                   	push   %esi
f0000cfe:	57                   	push   %edi
f0000cff:	16                   	push   %ss
f0000d00:	54                   	push   %esp
f0000d01:	54                   	push   %esp
f0000d02:	6a 02                	push   $0x2
f0000d04:	e8 07 08 00 00       	call   f0001510 <Interrupt_Handle>
f0000d09:	83 c4 04             	add    $0x4,%esp
f0000d0c:	83 c4 04             	add    $0x4,%esp
f0000d0f:	0f b2 24 24          	lss    (%esp),%esp
f0000d13:	83 c4 04             	add    $0x4,%esp
f0000d16:	5f                   	pop    %edi
f0000d17:	5e                   	pop    %esi
f0000d18:	5d                   	pop    %ebp
f0000d19:	5a                   	pop    %edx
f0000d1a:	59                   	pop    %ecx
f0000d1b:	5b                   	pop    %ebx
f0000d1c:	58                   	pop    %eax
f0000d1d:	0f a9                	pop    %gs
f0000d1f:	0f a1                	pop    %fs
f0000d21:	07                   	pop    %es
f0000d22:	1f                   	pop    %ds
f0000d23:	fb                   	sti    
f0000d24:	cf                   	iret   

f0000d25 <IRQ_03>:
f0000d25:	fa                   	cli    
f0000d26:	fc                   	cld    
f0000d27:	1e                   	push   %ds
f0000d28:	06                   	push   %es
f0000d29:	0f a0                	push   %fs
f0000d2b:	0f a8                	push   %gs
f0000d2d:	50                   	push   %eax
f0000d2e:	53                   	push   %ebx
f0000d2f:	51                   	push   %ecx
f0000d30:	52                   	push   %edx
f0000d31:	55                   	push   %ebp
f0000d32:	56                   	push   %esi
f0000d33:	57                   	push   %edi
f0000d34:	16                   	push   %ss
f0000d35:	54                   	push   %esp
f0000d36:	54                   	push   %esp
f0000d37:	6a 03                	push   $0x3
f0000d39:	e8 d2 07 00 00       	call   f0001510 <Interrupt_Handle>
f0000d3e:	83 c4 04             	add    $0x4,%esp
f0000d41:	83 c4 04             	add    $0x4,%esp
f0000d44:	0f b2 24 24          	lss    (%esp),%esp
f0000d48:	83 c4 04             	add    $0x4,%esp
f0000d4b:	5f                   	pop    %edi
f0000d4c:	5e                   	pop    %esi
f0000d4d:	5d                   	pop    %ebp
f0000d4e:	5a                   	pop    %edx
f0000d4f:	59                   	pop    %ecx
f0000d50:	5b                   	pop    %ebx
f0000d51:	58                   	pop    %eax
f0000d52:	0f a9                	pop    %gs
f0000d54:	0f a1                	pop    %fs
f0000d56:	07                   	pop    %es
f0000d57:	1f                   	pop    %ds
f0000d58:	fb                   	sti    
f0000d59:	cf                   	iret   

f0000d5a <IRQ_04>:
f0000d5a:	fa                   	cli    
f0000d5b:	fc                   	cld    
f0000d5c:	1e                   	push   %ds
f0000d5d:	06                   	push   %es
f0000d5e:	0f a0                	push   %fs
f0000d60:	0f a8                	push   %gs
f0000d62:	50                   	push   %eax
f0000d63:	53                   	push   %ebx
f0000d64:	51                   	push   %ecx
f0000d65:	52                   	push   %edx
f0000d66:	55                   	push   %ebp
f0000d67:	56                   	push   %esi
f0000d68:	57                   	push   %edi
f0000d69:	16                   	push   %ss
f0000d6a:	54                   	push   %esp
f0000d6b:	54                   	push   %esp
f0000d6c:	6a 04                	push   $0x4
f0000d6e:	e8 9d 07 00 00       	call   f0001510 <Interrupt_Handle>
f0000d73:	83 c4 04             	add    $0x4,%esp
f0000d76:	83 c4 04             	add    $0x4,%esp
f0000d79:	0f b2 24 24          	lss    (%esp),%esp
f0000d7d:	83 c4 04             	add    $0x4,%esp
f0000d80:	5f                   	pop    %edi
f0000d81:	5e                   	pop    %esi
f0000d82:	5d                   	pop    %ebp
f0000d83:	5a                   	pop    %edx
f0000d84:	59                   	pop    %ecx
f0000d85:	5b                   	pop    %ebx
f0000d86:	58                   	pop    %eax
f0000d87:	0f a9                	pop    %gs
f0000d89:	0f a1                	pop    %fs
f0000d8b:	07                   	pop    %es
f0000d8c:	1f                   	pop    %ds
f0000d8d:	fb                   	sti    
f0000d8e:	cf                   	iret   

f0000d8f <IRQ_05>:
f0000d8f:	fa                   	cli    
f0000d90:	fc                   	cld    
f0000d91:	1e                   	push   %ds
f0000d92:	06                   	push   %es
f0000d93:	0f a0                	push   %fs
f0000d95:	0f a8                	push   %gs
f0000d97:	50                   	push   %eax
f0000d98:	53                   	push   %ebx
f0000d99:	51                   	push   %ecx
f0000d9a:	52                   	push   %edx
f0000d9b:	55                   	push   %ebp
f0000d9c:	56                   	push   %esi
f0000d9d:	57                   	push   %edi
f0000d9e:	16                   	push   %ss
f0000d9f:	54                   	push   %esp
f0000da0:	54                   	push   %esp
f0000da1:	6a 05                	push   $0x5
f0000da3:	e8 68 07 00 00       	call   f0001510 <Interrupt_Handle>
f0000da8:	83 c4 04             	add    $0x4,%esp
f0000dab:	83 c4 04             	add    $0x4,%esp
f0000dae:	0f b2 24 24          	lss    (%esp),%esp
f0000db2:	83 c4 04             	add    $0x4,%esp
f0000db5:	5f                   	pop    %edi
f0000db6:	5e                   	pop    %esi
f0000db7:	5d                   	pop    %ebp
f0000db8:	5a                   	pop    %edx
f0000db9:	59                   	pop    %ecx
f0000dba:	5b                   	pop    %ebx
f0000dbb:	58                   	pop    %eax
f0000dbc:	0f a9                	pop    %gs
f0000dbe:	0f a1                	pop    %fs
f0000dc0:	07                   	pop    %es
f0000dc1:	1f                   	pop    %ds
f0000dc2:	fb                   	sti    
f0000dc3:	cf                   	iret   

f0000dc4 <IRQ_06>:
f0000dc4:	fa                   	cli    
f0000dc5:	fc                   	cld    
f0000dc6:	1e                   	push   %ds
f0000dc7:	06                   	push   %es
f0000dc8:	0f a0                	push   %fs
f0000dca:	0f a8                	push   %gs
f0000dcc:	50                   	push   %eax
f0000dcd:	53                   	push   %ebx
f0000dce:	51                   	push   %ecx
f0000dcf:	52                   	push   %edx
f0000dd0:	55                   	push   %ebp
f0000dd1:	56                   	push   %esi
f0000dd2:	57                   	push   %edi
f0000dd3:	16                   	push   %ss
f0000dd4:	54                   	push   %esp
f0000dd5:	54                   	push   %esp
f0000dd6:	6a 06                	push   $0x6
f0000dd8:	e8 33 07 00 00       	call   f0001510 <Interrupt_Handle>
f0000ddd:	83 c4 04             	add    $0x4,%esp
f0000de0:	83 c4 04             	add    $0x4,%esp
f0000de3:	0f b2 24 24          	lss    (%esp),%esp
f0000de7:	83 c4 04             	add    $0x4,%esp
f0000dea:	5f                   	pop    %edi
f0000deb:	5e                   	pop    %esi
f0000dec:	5d                   	pop    %ebp
f0000ded:	5a                   	pop    %edx
f0000dee:	59                   	pop    %ecx
f0000def:	5b                   	pop    %ebx
f0000df0:	58                   	pop    %eax
f0000df1:	0f a9                	pop    %gs
f0000df3:	0f a1                	pop    %fs
f0000df5:	07                   	pop    %es
f0000df6:	1f                   	pop    %ds
f0000df7:	fb                   	sti    
f0000df8:	cf                   	iret   

f0000df9 <IRQ_07>:
f0000df9:	fa                   	cli    
f0000dfa:	fc                   	cld    
f0000dfb:	1e                   	push   %ds
f0000dfc:	06                   	push   %es
f0000dfd:	0f a0                	push   %fs
f0000dff:	0f a8                	push   %gs
f0000e01:	50                   	push   %eax
f0000e02:	53                   	push   %ebx
f0000e03:	51                   	push   %ecx
f0000e04:	52                   	push   %edx
f0000e05:	55                   	push   %ebp
f0000e06:	56                   	push   %esi
f0000e07:	57                   	push   %edi
f0000e08:	16                   	push   %ss
f0000e09:	54                   	push   %esp
f0000e0a:	54                   	push   %esp
f0000e0b:	6a 07                	push   $0x7
f0000e0d:	e8 fe 06 00 00       	call   f0001510 <Interrupt_Handle>
f0000e12:	83 c4 04             	add    $0x4,%esp
f0000e15:	83 c4 04             	add    $0x4,%esp
f0000e18:	0f b2 24 24          	lss    (%esp),%esp
f0000e1c:	83 c4 04             	add    $0x4,%esp
f0000e1f:	5f                   	pop    %edi
f0000e20:	5e                   	pop    %esi
f0000e21:	5d                   	pop    %ebp
f0000e22:	5a                   	pop    %edx
f0000e23:	59                   	pop    %ecx
f0000e24:	5b                   	pop    %ebx
f0000e25:	58                   	pop    %eax
f0000e26:	0f a9                	pop    %gs
f0000e28:	0f a1                	pop    %fs
f0000e2a:	07                   	pop    %es
f0000e2b:	1f                   	pop    %ds
f0000e2c:	fb                   	sti    
f0000e2d:	cf                   	iret   

f0000e2e <IRQ_08>:
f0000e2e:	fa                   	cli    
f0000e2f:	fc                   	cld    
f0000e30:	1e                   	push   %ds
f0000e31:	06                   	push   %es
f0000e32:	0f a0                	push   %fs
f0000e34:	0f a8                	push   %gs
f0000e36:	50                   	push   %eax
f0000e37:	53                   	push   %ebx
f0000e38:	51                   	push   %ecx
f0000e39:	52                   	push   %edx
f0000e3a:	55                   	push   %ebp
f0000e3b:	56                   	push   %esi
f0000e3c:	57                   	push   %edi
f0000e3d:	16                   	push   %ss
f0000e3e:	54                   	push   %esp
f0000e3f:	54                   	push   %esp
f0000e40:	6a 08                	push   $0x8
f0000e42:	e8 c9 06 00 00       	call   f0001510 <Interrupt_Handle>
f0000e47:	83 c4 04             	add    $0x4,%esp
f0000e4a:	83 c4 04             	add    $0x4,%esp
f0000e4d:	0f b2 24 24          	lss    (%esp),%esp
f0000e51:	83 c4 04             	add    $0x4,%esp
f0000e54:	5f                   	pop    %edi
f0000e55:	5e                   	pop    %esi
f0000e56:	5d                   	pop    %ebp
f0000e57:	5a                   	pop    %edx
f0000e58:	59                   	pop    %ecx
f0000e59:	5b                   	pop    %ebx
f0000e5a:	58                   	pop    %eax
f0000e5b:	0f a9                	pop    %gs
f0000e5d:	0f a1                	pop    %fs
f0000e5f:	07                   	pop    %es
f0000e60:	1f                   	pop    %ds
f0000e61:	fb                   	sti    
f0000e62:	cf                   	iret   

f0000e63 <IRQ_09>:
f0000e63:	fa                   	cli    
f0000e64:	fc                   	cld    
f0000e65:	1e                   	push   %ds
f0000e66:	06                   	push   %es
f0000e67:	0f a0                	push   %fs
f0000e69:	0f a8                	push   %gs
f0000e6b:	50                   	push   %eax
f0000e6c:	53                   	push   %ebx
f0000e6d:	51                   	push   %ecx
f0000e6e:	52                   	push   %edx
f0000e6f:	55                   	push   %ebp
f0000e70:	56                   	push   %esi
f0000e71:	57                   	push   %edi
f0000e72:	16                   	push   %ss
f0000e73:	54                   	push   %esp
f0000e74:	54                   	push   %esp
f0000e75:	6a 09                	push   $0x9
f0000e77:	e8 94 06 00 00       	call   f0001510 <Interrupt_Handle>
f0000e7c:	83 c4 04             	add    $0x4,%esp
f0000e7f:	83 c4 04             	add    $0x4,%esp
f0000e82:	0f b2 24 24          	lss    (%esp),%esp
f0000e86:	83 c4 04             	add    $0x4,%esp
f0000e89:	5f                   	pop    %edi
f0000e8a:	5e                   	pop    %esi
f0000e8b:	5d                   	pop    %ebp
f0000e8c:	5a                   	pop    %edx
f0000e8d:	59                   	pop    %ecx
f0000e8e:	5b                   	pop    %ebx
f0000e8f:	58                   	pop    %eax
f0000e90:	0f a9                	pop    %gs
f0000e92:	0f a1                	pop    %fs
f0000e94:	07                   	pop    %es
f0000e95:	1f                   	pop    %ds
f0000e96:	fb                   	sti    
f0000e97:	cf                   	iret   

f0000e98 <IRQ_0A>:
f0000e98:	fa                   	cli    
f0000e99:	fc                   	cld    
f0000e9a:	1e                   	push   %ds
f0000e9b:	06                   	push   %es
f0000e9c:	0f a0                	push   %fs
f0000e9e:	0f a8                	push   %gs
f0000ea0:	50                   	push   %eax
f0000ea1:	53                   	push   %ebx
f0000ea2:	51                   	push   %ecx
f0000ea3:	52                   	push   %edx
f0000ea4:	55                   	push   %ebp
f0000ea5:	56                   	push   %esi
f0000ea6:	57                   	push   %edi
f0000ea7:	16                   	push   %ss
f0000ea8:	54                   	push   %esp
f0000ea9:	54                   	push   %esp
f0000eaa:	6a 0a                	push   $0xa
f0000eac:	e8 5f 06 00 00       	call   f0001510 <Interrupt_Handle>
f0000eb1:	83 c4 04             	add    $0x4,%esp
f0000eb4:	83 c4 04             	add    $0x4,%esp
f0000eb7:	0f b2 24 24          	lss    (%esp),%esp
f0000ebb:	83 c4 04             	add    $0x4,%esp
f0000ebe:	5f                   	pop    %edi
f0000ebf:	5e                   	pop    %esi
f0000ec0:	5d                   	pop    %ebp
f0000ec1:	5a                   	pop    %edx
f0000ec2:	59                   	pop    %ecx
f0000ec3:	5b                   	pop    %ebx
f0000ec4:	58                   	pop    %eax
f0000ec5:	0f a9                	pop    %gs
f0000ec7:	0f a1                	pop    %fs
f0000ec9:	07                   	pop    %es
f0000eca:	1f                   	pop    %ds
f0000ecb:	fb                   	sti    
f0000ecc:	cf                   	iret   

f0000ecd <IRQ_0B>:
f0000ecd:	fa                   	cli    
f0000ece:	fc                   	cld    
f0000ecf:	1e                   	push   %ds
f0000ed0:	06                   	push   %es
f0000ed1:	0f a0                	push   %fs
f0000ed3:	0f a8                	push   %gs
f0000ed5:	50                   	push   %eax
f0000ed6:	53                   	push   %ebx
f0000ed7:	51                   	push   %ecx
f0000ed8:	52                   	push   %edx
f0000ed9:	55                   	push   %ebp
f0000eda:	56                   	push   %esi
f0000edb:	57                   	push   %edi
f0000edc:	16                   	push   %ss
f0000edd:	54                   	push   %esp
f0000ede:	54                   	push   %esp
f0000edf:	6a 0b                	push   $0xb
f0000ee1:	e8 2a 06 00 00       	call   f0001510 <Interrupt_Handle>
f0000ee6:	83 c4 04             	add    $0x4,%esp
f0000ee9:	83 c4 04             	add    $0x4,%esp
f0000eec:	0f b2 24 24          	lss    (%esp),%esp
f0000ef0:	83 c4 04             	add    $0x4,%esp
f0000ef3:	5f                   	pop    %edi
f0000ef4:	5e                   	pop    %esi
f0000ef5:	5d                   	pop    %ebp
f0000ef6:	5a                   	pop    %edx
f0000ef7:	59                   	pop    %ecx
f0000ef8:	5b                   	pop    %ebx
f0000ef9:	58                   	pop    %eax
f0000efa:	0f a9                	pop    %gs
f0000efc:	0f a1                	pop    %fs
f0000efe:	07                   	pop    %es
f0000eff:	1f                   	pop    %ds
f0000f00:	fb                   	sti    
f0000f01:	cf                   	iret   

f0000f02 <IRQ_0C>:
f0000f02:	fa                   	cli    
f0000f03:	fc                   	cld    
f0000f04:	1e                   	push   %ds
f0000f05:	06                   	push   %es
f0000f06:	0f a0                	push   %fs
f0000f08:	0f a8                	push   %gs
f0000f0a:	50                   	push   %eax
f0000f0b:	53                   	push   %ebx
f0000f0c:	51                   	push   %ecx
f0000f0d:	52                   	push   %edx
f0000f0e:	55                   	push   %ebp
f0000f0f:	56                   	push   %esi
f0000f10:	57                   	push   %edi
f0000f11:	16                   	push   %ss
f0000f12:	54                   	push   %esp
f0000f13:	54                   	push   %esp
f0000f14:	6a 0c                	push   $0xc
f0000f16:	e8 f5 05 00 00       	call   f0001510 <Interrupt_Handle>
f0000f1b:	83 c4 04             	add    $0x4,%esp
f0000f1e:	83 c4 04             	add    $0x4,%esp
f0000f21:	0f b2 24 24          	lss    (%esp),%esp
f0000f25:	83 c4 04             	add    $0x4,%esp
f0000f28:	5f                   	pop    %edi
f0000f29:	5e                   	pop    %esi
f0000f2a:	5d                   	pop    %ebp
f0000f2b:	5a                   	pop    %edx
f0000f2c:	59                   	pop    %ecx
f0000f2d:	5b                   	pop    %ebx
f0000f2e:	58                   	pop    %eax
f0000f2f:	0f a9                	pop    %gs
f0000f31:	0f a1                	pop    %fs
f0000f33:	07                   	pop    %es
f0000f34:	1f                   	pop    %ds
f0000f35:	fb                   	sti    
f0000f36:	cf                   	iret   

f0000f37 <IRQ_0D>:
f0000f37:	fa                   	cli    
f0000f38:	fc                   	cld    
f0000f39:	1e                   	push   %ds
f0000f3a:	06                   	push   %es
f0000f3b:	0f a0                	push   %fs
f0000f3d:	0f a8                	push   %gs
f0000f3f:	50                   	push   %eax
f0000f40:	53                   	push   %ebx
f0000f41:	51                   	push   %ecx
f0000f42:	52                   	push   %edx
f0000f43:	55                   	push   %ebp
f0000f44:	56                   	push   %esi
f0000f45:	57                   	push   %edi
f0000f46:	16                   	push   %ss
f0000f47:	54                   	push   %esp
f0000f48:	54                   	push   %esp
f0000f49:	6a 0d                	push   $0xd
f0000f4b:	e8 c0 05 00 00       	call   f0001510 <Interrupt_Handle>
f0000f50:	83 c4 04             	add    $0x4,%esp
f0000f53:	83 c4 04             	add    $0x4,%esp
f0000f56:	0f b2 24 24          	lss    (%esp),%esp
f0000f5a:	83 c4 04             	add    $0x4,%esp
f0000f5d:	5f                   	pop    %edi
f0000f5e:	5e                   	pop    %esi
f0000f5f:	5d                   	pop    %ebp
f0000f60:	5a                   	pop    %edx
f0000f61:	59                   	pop    %ecx
f0000f62:	5b                   	pop    %ebx
f0000f63:	58                   	pop    %eax
f0000f64:	0f a9                	pop    %gs
f0000f66:	0f a1                	pop    %fs
f0000f68:	07                   	pop    %es
f0000f69:	1f                   	pop    %ds
f0000f6a:	fb                   	sti    
f0000f6b:	cf                   	iret   

f0000f6c <IRQ_0E>:
f0000f6c:	fa                   	cli    
f0000f6d:	fc                   	cld    
f0000f6e:	1e                   	push   %ds
f0000f6f:	06                   	push   %es
f0000f70:	0f a0                	push   %fs
f0000f72:	0f a8                	push   %gs
f0000f74:	50                   	push   %eax
f0000f75:	53                   	push   %ebx
f0000f76:	51                   	push   %ecx
f0000f77:	52                   	push   %edx
f0000f78:	55                   	push   %ebp
f0000f79:	56                   	push   %esi
f0000f7a:	57                   	push   %edi
f0000f7b:	16                   	push   %ss
f0000f7c:	54                   	push   %esp
f0000f7d:	54                   	push   %esp
f0000f7e:	6a 0e                	push   $0xe
f0000f80:	e8 8b 05 00 00       	call   f0001510 <Interrupt_Handle>
f0000f85:	83 c4 04             	add    $0x4,%esp
f0000f88:	83 c4 04             	add    $0x4,%esp
f0000f8b:	0f b2 24 24          	lss    (%esp),%esp
f0000f8f:	83 c4 04             	add    $0x4,%esp
f0000f92:	5f                   	pop    %edi
f0000f93:	5e                   	pop    %esi
f0000f94:	5d                   	pop    %ebp
f0000f95:	5a                   	pop    %edx
f0000f96:	59                   	pop    %ecx
f0000f97:	5b                   	pop    %ebx
f0000f98:	58                   	pop    %eax
f0000f99:	0f a9                	pop    %gs
f0000f9b:	0f a1                	pop    %fs
f0000f9d:	07                   	pop    %es
f0000f9e:	1f                   	pop    %ds
f0000f9f:	fb                   	sti    
f0000fa0:	cf                   	iret   

f0000fa1 <IRQ_0F>:
f0000fa1:	fa                   	cli    
f0000fa2:	fc                   	cld    
f0000fa3:	1e                   	push   %ds
f0000fa4:	06                   	push   %es
f0000fa5:	0f a0                	push   %fs
f0000fa7:	0f a8                	push   %gs
f0000fa9:	50                   	push   %eax
f0000faa:	53                   	push   %ebx
f0000fab:	51                   	push   %ecx
f0000fac:	52                   	push   %edx
f0000fad:	55                   	push   %ebp
f0000fae:	56                   	push   %esi
f0000faf:	57                   	push   %edi
f0000fb0:	16                   	push   %ss
f0000fb1:	54                   	push   %esp
f0000fb2:	54                   	push   %esp
f0000fb3:	6a 0f                	push   $0xf
f0000fb5:	e8 56 05 00 00       	call   f0001510 <Interrupt_Handle>
f0000fba:	83 c4 04             	add    $0x4,%esp
f0000fbd:	83 c4 04             	add    $0x4,%esp
f0000fc0:	0f b2 24 24          	lss    (%esp),%esp
f0000fc4:	83 c4 04             	add    $0x4,%esp
f0000fc7:	5f                   	pop    %edi
f0000fc8:	5e                   	pop    %esi
f0000fc9:	5d                   	pop    %ebp
f0000fca:	5a                   	pop    %edx
f0000fcb:	59                   	pop    %ecx
f0000fcc:	5b                   	pop    %ebx
f0000fcd:	58                   	pop    %eax
f0000fce:	0f a9                	pop    %gs
f0000fd0:	0f a1                	pop    %fs
f0000fd2:	07                   	pop    %es
f0000fd3:	1f                   	pop    %ds
f0000fd4:	fb                   	sti    
f0000fd5:	cf                   	iret   
	...

f0000fe0 <Kernel_ParseParameters>:
f0000fe0:	55                   	push   %ebp
f0000fe1:	89 e5                	mov    %esp,%ebp
f0000fe3:	31 c9                	xor    %ecx,%ecx
f0000fe5:	57                   	push   %edi
f0000fe6:	56                   	push   %esi
f0000fe7:	53                   	push   %ebx
f0000fe8:	52                   	push   %edx
f0000fe9:	8b 7d 08             	mov    0x8(%ebp),%edi
f0000fec:	8a 17                	mov    (%edi),%dl
f0000fee:	84 d2                	test   %dl,%dl
f0000ff0:	0f 84 d6 00 00 00    	je     f00010cc <Kernel_ParseParameters+0xec>
f0000ff6:	31 db                	xor    %ebx,%ebx
f0000ff8:	88 d3                	mov    %dl,%bl
f0000ffa:	f6 83 00 49 00 f0 20 	testb  $0x20,0xf0004900(%ebx)
f0001001:	75 19                	jne    f000101c <Kernel_ParseParameters+0x3c>
f0001003:	41                   	inc    %ecx
f0001004:	8a 14 39             	mov    (%ecx,%edi,1),%dl
f0001007:	84 d2                	test   %dl,%dl
f0001009:	0f 84 b2 00 00 00    	je     f00010c1 <Kernel_ParseParameters+0xe1>
f000100f:	31 db                	xor    %ebx,%ebx
f0001011:	88 d3                	mov    %dl,%bl
f0001013:	f6 83 00 49 00 f0 20 	testb  $0x20,0xf0004900(%ebx)
f000101a:	74 e7                	je     f0001003 <Kernel_ParseParameters+0x23>
f000101c:	84 d2                	test   %dl,%dl
f000101e:	0f 84 9d 00 00 00    	je     f00010c1 <Kernel_ParseParameters+0xe1>
f0001024:	c6 45 f3 00          	movb   $0x0,0xfffffff3(%ebp)
f0001028:	31 db                	xor    %ebx,%ebx
f000102a:	88 d3                	mov    %dl,%bl
f000102c:	f6 83 00 49 00 f0 20 	testb  $0x20,0xf0004900(%ebx)
f0001033:	74 11                	je     f0001046 <Kernel_ParseParameters+0x66>
f0001035:	41                   	inc    %ecx
f0001036:	31 db                	xor    %ebx,%ebx
f0001038:	8a 14 39             	mov    (%ecx,%edi,1),%dl
f000103b:	88 d3                	mov    %dl,%bl
f000103d:	f6 83 00 49 00 f0 20 	testb  $0x20,0xf0004900(%ebx)
f0001044:	75 ef                	jne    f0001035 <Kernel_ParseParameters+0x55>
f0001046:	89 ce                	mov    %ecx,%esi
f0001048:	84 d2                	test   %dl,%dl
f000104a:	74 7b                	je     f00010c7 <Kernel_ParseParameters+0xe7>
f000104c:	31 db                	xor    %ebx,%ebx
f000104e:	88 d3                	mov    %dl,%bl
f0001050:	f6 83 00 49 00 f0 20 	testb  $0x20,0xf0004900(%ebx)
f0001057:	75 6e                	jne    f00010c7 <Kernel_ParseParameters+0xe7>
f0001059:	8d b4 26 00 00 00 00 	lea    0x0(%esi),%esi
f0001060:	46                   	inc    %esi
f0001061:	8a 14 3e             	mov    (%esi,%edi,1),%dl
f0001064:	84 d2                	test   %dl,%dl
f0001066:	74 11                	je     f0001079 <Kernel_ParseParameters+0x99>
f0001068:	31 db                	xor    %ebx,%ebx
f000106a:	88 d3                	mov    %dl,%bl
f000106c:	f6 83 00 49 00 f0 20 	testb  $0x20,0xf0004900(%ebx)
f0001073:	74 eb                	je     f0001060 <Kernel_ParseParameters+0x80>
f0001075:	84 d2                	test   %dl,%dl
f0001077:	75 04                	jne    f000107d <Kernel_ParseParameters+0x9d>
f0001079:	c6 45 f3 01          	movb   $0x1,0xfffffff3(%ebp)
f000107d:	8d 14 39             	lea    (%ecx,%edi,1),%edx
f0001080:	b8 05 00 00 00       	mov    $0x5,%eax
f0001085:	bb c8 3f 00 f0       	mov    $0xf0003fc8,%ebx
f000108a:	48                   	dec    %eax
f000108b:	78 0c                	js     f0001099 <Kernel_ParseParameters+0xb9>
f000108d:	8a 0a                	mov    (%edx),%cl
f000108f:	42                   	inc    %edx
f0001090:	38 0b                	cmp    %cl,(%ebx)
f0001092:	75 09                	jne    f000109d <Kernel_ParseParameters+0xbd>
f0001094:	43                   	inc    %ebx
f0001095:	84 c9                	test   %cl,%cl
f0001097:	75 f1                	jne    f000108a <Kernel_ParseParameters+0xaa>
f0001099:	31 c9                	xor    %ecx,%ecx
f000109b:	eb 09                	jmp    f00010a6 <Kernel_ParseParameters+0xc6>
f000109d:	b9 01 00 00 00       	mov    $0x1,%ecx
f00010a2:	72 02                	jb     f00010a6 <Kernel_ParseParameters+0xc6>
f00010a4:	f7 d9                	neg    %ecx
f00010a6:	85 c9                	test   %ecx,%ecx
f00010a8:	75 07                	jne    f00010b1 <Kernel_ParseParameters+0xd1>
f00010aa:	c6 05 00 4a 00 f0 01 	movb   $0x1,0xf0004a00
f00010b1:	89 f1                	mov    %esi,%ecx
f00010b3:	80 7d f3 00          	cmpb   $0x0,0xfffffff3(%ebp)
f00010b7:	75 08                	jne    f00010c1 <Kernel_ParseParameters+0xe1>
f00010b9:	8a 14 3e             	mov    (%esi,%edi,1),%dl
f00010bc:	e9 67 ff ff ff       	jmp    f0001028 <Kernel_ParseParameters+0x48>
f00010c1:	58                   	pop    %eax
f00010c2:	5b                   	pop    %ebx
f00010c3:	5e                   	pop    %esi
f00010c4:	5f                   	pop    %edi
f00010c5:	5d                   	pop    %ebp
f00010c6:	c3                   	ret    
f00010c7:	8a 14 39             	mov    (%ecx,%edi,1),%dl
f00010ca:	eb a9                	jmp    f0001075 <Kernel_ParseParameters+0x95>
f00010cc:	8a 17                	mov    (%edi),%dl
f00010ce:	e9 49 ff ff ff       	jmp    f000101c <Kernel_ParseParameters+0x3c>
f00010d3:	8d b6 00 00 00 00    	lea    0x0(%esi),%esi
f00010d9:	8d bc 27 00 00 00 00 	lea    0x0(%edi),%edi

f00010e0 <Kernel_Main>:
f00010e0:	55                   	push   %ebp
f00010e1:	89 e5                	mov    %esp,%ebp
f00010e3:	53                   	push   %ebx
f00010e4:	50                   	push   %eax
f00010e5:	c7 05 70 4a 00 f0 00 	movl   $0xffc00000,0xf0004a70
f00010ec:	00 c0 ff 
f00010ef:	8b 0d 52 08 00 f0    	mov    0xf0000852,%ecx
f00010f5:	8b 5d 08             	mov    0x8(%ebp),%ebx
f00010f8:	89 0d 60 4a 00 f0    	mov    %ecx,0xf0004a60
f00010fe:	c1 e1 0c             	shl    $0xc,%ecx
f0001101:	8d 81 00 00 00 f0    	lea    0xf0000000(%ecx),%eax
f0001107:	c1 e1 00             	shl    $0x0,%ecx
f000110a:	a3 6c 4a 00 f0       	mov    %eax,0xf0004a6c
f000110f:	8d 81 00 10 00 f0    	lea    0xf0001000(%ecx),%eax
f0001115:	c1 e1 00             	shl    $0x0,%ecx
f0001118:	a3 68 4a 00 f0       	mov    %eax,0xf0004a68
f000111d:	81 e9 00 f0 fe 0f    	sub    $0xffef000,%ecx
f0001123:	89 0d 64 4a 00 f0    	mov    %ecx,0xf0004a64
f0001129:	e8 e2 15 00 00       	call   f0002710 <TextModeVideo_Init>
f000112e:	e8 cd 01 00 00       	call   f0001300 <Syslog_Init>
f0001133:	50                   	push   %eax
f0001134:	50                   	push   %eax
f0001135:	68 14 00 00 f0       	push   $0xf0000014
f000113a:	68 4c 00 00 f0       	push   $0xf000004c
f000113f:	e8 ec 18 00 00       	call   f0002a30 <Descriptor_Init>
f0001144:	8b 53 10             	mov    0x10(%ebx),%edx
f0001147:	58                   	pop    %eax
f0001148:	52                   	push   %edx
f0001149:	e8 92 fe ff ff       	call   f0000fe0 <Kernel_ParseParameters>
f000114e:	58                   	pop    %eax
f000114f:	5a                   	pop    %edx
f0001150:	68 ce 3f 00 f0       	push   $0xf0003fce
f0001155:	68 db 3f 00 f0       	push   $0xf0003fdb
f000115a:	e8 51 00 00 00       	call   f00011b0 <Syslog_Entry>
f000115f:	e8 ac 01 00 00       	call   f0001310 <Interrupt_Init>
f0001164:	89 1c 24             	mov    %ebx,(%esp)
f0001167:	e8 c4 04 00 00       	call   f0001630 <MM_Init>
f000116c:	e8 3f 14 00 00       	call   f00025b0 <PIC_Init>
f0001171:	e8 5a 15 00 00       	call   f00026d0 <PIT_Init>
f0001176:	e8 d5 12 00 00       	call   f0002450 <Timer_Init>
f000117b:	8b 15 80 4a 00 f0    	mov    0xf0004a80,%edx
f0001181:	c1 e2 02             	shl    $0x2,%edx
f0001184:	a1 80 4a 00 f0       	mov    0xf0004a80,%eax
f0001189:	50                   	push   %eax
f000118a:	52                   	push   %edx
f000118b:	68 ec 3f 00 f0       	push   $0xf0003fec
f0001190:	68 e7 3f 00 f0       	push   $0xf0003fe7
f0001195:	e8 16 00 00 00       	call   f00011b0 <Syslog_Entry>
f000119a:	c6 05 01 4a 00 f0 01 	movb   $0x1,0xf0004a01
f00011a1:	fb                   	sti    
f00011a2:	83 c4 20             	add    $0x20,%esp
f00011a5:	f4                   	hlt    
f00011a6:	eb fd                	jmp    f00011a5 <Kernel_Main+0xc5>
	...

f00011b0 <Syslog_Entry>:
f00011b0:	55                   	push   %ebp
f00011b1:	89 e5                	mov    %esp,%ebp
f00011b3:	57                   	push   %edi
f00011b4:	56                   	push   %esi
f00011b5:	53                   	push   %ebx
f00011b6:	81 ec 0c 04 00 00    	sub    $0x40c,%esp
f00011bc:	8b 5d 08             	mov    0x8(%ebp),%ebx
f00011bf:	80 3d 00 4a 00 f0 00 	cmpb   $0x0,0xf0004a00
f00011c6:	0f 85 bd 00 00 00    	jne    f0001289 <Syslog_Entry+0xd9>
f00011cc:	85 db                	test   %ebx,%ebx
f00011ce:	0f 84 85 00 00 00    	je     f0001259 <Syslog_Entry+0xa9>
f00011d4:	83 ec 0c             	sub    $0xc,%esp
f00011d7:	31 f6                	xor    %esi,%esi
f00011d9:	6a 09                	push   $0x9
f00011db:	e8 b0 16 00 00       	call   f0002890 <TextModeVideo_ChangeColour>
f00011e0:	89 1c 24             	mov    %ebx,(%esp)
f00011e3:	e8 18 18 00 00       	call   f0002a00 <TextModeVideo_WriteString>
f00011e8:	83 c4 10             	add    $0x10,%esp
f00011eb:	89 d8                	mov    %ebx,%eax
f00011ed:	8a 08                	mov    (%eax),%cl
f00011ef:	40                   	inc    %eax
f00011f0:	84 c9                	test   %cl,%cl
f00011f2:	75 f9                	jne    f00011ed <Syslog_Entry+0x3d>
f00011f4:	b9 0d 00 00 00       	mov    $0xd,%ecx
f00011f9:	29 d8                	sub    %ebx,%eax
f00011fb:	29 c1                	sub    %eax,%ecx
f00011fd:	39 ce                	cmp    %ecx,%esi
f00011ff:	73 27                	jae    f0001228 <Syslog_Entry+0x78>
f0001201:	bf 0c 00 00 00       	mov    $0xc,%edi
f0001206:	83 ec 0c             	sub    $0xc,%esp
f0001209:	46                   	inc    %esi
f000120a:	6a 20                	push   $0x20
f000120c:	e8 8f 16 00 00       	call   f00028a0 <TextModeVideo_WriteChar>
f0001211:	83 c4 10             	add    $0x10,%esp
f0001214:	89 d8                	mov    %ebx,%eax
f0001216:	8a 08                	mov    (%eax),%cl
f0001218:	40                   	inc    %eax
f0001219:	84 c9                	test   %cl,%cl
f000121b:	75 f9                	jne    f0001216 <Syslog_Entry+0x66>
f000121d:	89 fa                	mov    %edi,%edx
f000121f:	29 d8                	sub    %ebx,%eax
f0001221:	48                   	dec    %eax
f0001222:	29 c2                	sub    %eax,%edx
f0001224:	39 d6                	cmp    %edx,%esi
f0001226:	72 de                	jb     f0001206 <Syslog_Entry+0x56>
f0001228:	83 ec 0c             	sub    $0xc,%esp
f000122b:	6a 0d                	push   $0xd
f000122d:	e8 5e 16 00 00       	call   f0002890 <TextModeVideo_ChangeColour>
f0001232:	c7 04 24 20 00 00 00 	movl   $0x20,(%esp)
f0001239:	e8 62 16 00 00       	call   f00028a0 <TextModeVideo_WriteChar>
f000123e:	c7 04 24 2d 00 00 00 	movl   $0x2d,(%esp)
f0001245:	e8 56 16 00 00       	call   f00028a0 <TextModeVideo_WriteChar>
f000124a:	c7 04 24 20 00 00 00 	movl   $0x20,(%esp)
f0001251:	e8 4a 16 00 00       	call   f00028a0 <TextModeVideo_WriteChar>
f0001256:	83 c4 10             	add    $0x10,%esp
f0001259:	8b 55 0c             	mov    0xc(%ebp),%edx
f000125c:	8d b5 e8 fb ff ff    	lea    0xfffffbe8(%ebp),%esi
f0001262:	8d 5d 10             	lea    0x10(%ebp),%ebx
f0001265:	53                   	push   %ebx
f0001266:	52                   	push   %edx
f0001267:	68 00 04 00 00       	push   $0x400
f000126c:	56                   	push   %esi
f000126d:	e8 9e 1b 00 00       	call   f0002e10 <vsnprintf>
f0001272:	c7 04 24 07 00 00 00 	movl   $0x7,(%esp)
f0001279:	e8 12 16 00 00       	call   f0002890 <TextModeVideo_ChangeColour>
f000127e:	89 34 24             	mov    %esi,(%esp)
f0001281:	e8 7a 17 00 00       	call   f0002a00 <TextModeVideo_WriteString>
f0001286:	83 c4 10             	add    $0x10,%esp
f0001289:	8d 65 f4             	lea    0xfffffff4(%ebp),%esp
f000128c:	5b                   	pop    %ebx
f000128d:	5e                   	pop    %esi
f000128e:	5f                   	pop    %edi
f000128f:	5d                   	pop    %ebp
f0001290:	c3                   	ret    
f0001291:	eb 0d                	jmp    f00012a0 <Syslog_LockInit>
f0001293:	90                   	nop    
f0001294:	90                   	nop    
f0001295:	90                   	nop    
f0001296:	90                   	nop    
f0001297:	90                   	nop    
f0001298:	90                   	nop    
f0001299:	90                   	nop    
f000129a:	90                   	nop    
f000129b:	90                   	nop    
f000129c:	90                   	nop    
f000129d:	90                   	nop    
f000129e:	90                   	nop    
f000129f:	90                   	nop    

f00012a0 <Syslog_LockInit>:
f00012a0:	55                   	push   %ebp
f00012a1:	c7 05 a0 4b 00 f0 00 	movl   $0x0,0xf0004ba0
f00012a8:	00 00 00 
f00012ab:	89 e5                	mov    %esp,%ebp
f00012ad:	5d                   	pop    %ebp
f00012ae:	c3                   	ret    
f00012af:	90                   	nop    

f00012b0 <Syslog_Lock>:
f00012b0:	55                   	push   %ebp
f00012b1:	89 e5                	mov    %esp,%ebp
f00012b3:	80 3d 01 4a 00 f0 01 	cmpb   $0x1,0xf0004a01
f00012ba:	74 04                	je     f00012c0 <Syslog_Lock+0x10>
f00012bc:	5d                   	pop    %ebp
f00012bd:	c3                   	ret    
f00012be:	89 f6                	mov    %esi,%esi
f00012c0:	ba 01 00 00 00       	mov    $0x1,%edx
f00012c5:	89 d1                	mov    %edx,%ecx
f00012c7:	87 0d a0 4b 00 f0    	xchg   %ecx,0xf0004ba0
f00012cd:	85 c9                	test   %ecx,%ecx
f00012cf:	75 f4                	jne    f00012c5 <Syslog_Lock+0x15>
f00012d1:	eb e9                	jmp    f00012bc <Syslog_Lock+0xc>
f00012d3:	8d b6 00 00 00 00    	lea    0x0(%esi),%esi
f00012d9:	8d bc 27 00 00 00 00 	lea    0x0(%edi),%edi

f00012e0 <Syslog_Unlock>:
f00012e0:	55                   	push   %ebp
f00012e1:	89 e5                	mov    %esp,%ebp
f00012e3:	80 3d 01 4a 00 f0 01 	cmpb   $0x1,0xf0004a01
f00012ea:	74 04                	je     f00012f0 <Syslog_Unlock+0x10>
f00012ec:	5d                   	pop    %ebp
f00012ed:	c3                   	ret    
f00012ee:	89 f6                	mov    %esi,%esi
f00012f0:	c7 05 a0 4b 00 f0 00 	movl   $0x0,0xf0004ba0
f00012f7:	00 00 00 
f00012fa:	eb f0                	jmp    f00012ec <Syslog_Unlock+0xc>
f00012fc:	8d 74 26 00          	lea    0x0(%esi),%esi

f0001300 <Syslog_Init>:
f0001300:	55                   	push   %ebp
f0001301:	c7 05 a0 4b 00 f0 00 	movl   $0x0,0xf0004ba0
f0001308:	00 00 00 
f000130b:	89 e5                	mov    %esp,%ebp
f000130d:	5d                   	pop    %ebp
f000130e:	c3                   	ret    
	...

f0001310 <Interrupt_Init>:
f0001310:	55                   	push   %ebp
f0001311:	89 e5                	mov    %esp,%ebp
f0001313:	53                   	push   %ebx
f0001314:	31 db                	xor    %ebx,%ebx
f0001316:	50                   	push   %eax
f0001317:	c7 04 9d 20 4a 00 f0 	movl   $0x0,0xf0004a20(,%ebx,4)
f000131e:	00 00 00 00 
f0001322:	43                   	inc    %ebx
f0001323:	83 fb 0f             	cmp    $0xf,%ebx
f0001326:	76 ef                	jbe    f0001317 <Interrupt_Init+0x7>
f0001328:	31 db                	xor    %ebx,%ebx
f000132a:	8d b6 00 00 00 00    	lea    0x0(%esi),%esi
f0001330:	50                   	push   %eax
f0001331:	50                   	push   %eax
f0001332:	68 cc 09 00 f0       	push   $0xf00009cc
f0001337:	53                   	push   %ebx
f0001338:	43                   	inc    %ebx
f0001339:	e8 12 17 00 00       	call   f0002a50 <Descriptor_SetInterruptGate>
f000133e:	83 c4 10             	add    $0x10,%esp
f0001341:	81 fb ff 00 00 00    	cmp    $0xff,%ebx
f0001347:	76 e7                	jbe    f0001330 <Interrupt_Init+0x20>
f0001349:	50                   	push   %eax
f000134a:	50                   	push   %eax
f000134b:	68 e2 09 00 f0       	push   $0xf00009e2
f0001350:	6a 00                	push   $0x0
f0001352:	e8 f9 16 00 00       	call   f0002a50 <Descriptor_SetInterruptGate>
f0001357:	59                   	pop    %ecx
f0001358:	5b                   	pop    %ebx
f0001359:	68 17 0a 00 f0       	push   $0xf0000a17
f000135e:	6a 01                	push   $0x1
f0001360:	e8 eb 16 00 00       	call   f0002a50 <Descriptor_SetInterruptGate>
f0001365:	58                   	pop    %eax
f0001366:	5a                   	pop    %edx
f0001367:	68 3e 0a 00 f0       	push   $0xf0000a3e
f000136c:	6a 02                	push   $0x2
f000136e:	e8 dd 16 00 00       	call   f0002a50 <Descriptor_SetInterruptGate>
f0001373:	59                   	pop    %ecx
f0001374:	5b                   	pop    %ebx
f0001375:	68 62 0a 00 f0       	push   $0xf0000a62
f000137a:	6a 03                	push   $0x3
f000137c:	e8 cf 16 00 00       	call   f0002a50 <Descriptor_SetInterruptGate>
f0001381:	58                   	pop    %eax
f0001382:	5a                   	pop    %edx
f0001383:	68 86 0a 00 f0       	push   $0xf0000a86
f0001388:	6a 04                	push   $0x4
f000138a:	e8 c1 16 00 00       	call   f0002a50 <Descriptor_SetInterruptGate>
f000138f:	59                   	pop    %ecx
f0001390:	5b                   	pop    %ebx
f0001391:	68 aa 0a 00 f0       	push   $0xf0000aaa
f0001396:	6a 05                	push   $0x5
f0001398:	e8 b3 16 00 00       	call   f0002a50 <Descriptor_SetInterruptGate>
f000139d:	58                   	pop    %eax
f000139e:	5a                   	pop    %edx
f000139f:	68 df 0a 00 f0       	push   $0xf0000adf
f00013a4:	6a 06                	push   $0x6
f00013a6:	e8 a5 16 00 00       	call   f0002a50 <Descriptor_SetInterruptGate>
f00013ab:	59                   	pop    %ecx
f00013ac:	5b                   	pop    %ebx
f00013ad:	68 06 0b 00 f0       	push   $0xf0000b06
f00013b2:	6a 07                	push   $0x7
f00013b4:	e8 97 16 00 00       	call   f0002a50 <Descriptor_SetInterruptGate>
f00013b9:	58                   	pop    %eax
f00013ba:	5a                   	pop    %edx
f00013bb:	68 3b 0b 00 f0       	push   $0xf0000b3b
f00013c0:	6a 08                	push   $0x8
f00013c2:	e8 89 16 00 00       	call   f0002a50 <Descriptor_SetInterruptGate>
f00013c7:	59                   	pop    %ecx
f00013c8:	5b                   	pop    %ebx
f00013c9:	68 65 0b 00 f0       	push   $0xf0000b65
f00013ce:	6a 09                	push   $0x9
f00013d0:	e8 7b 16 00 00       	call   f0002a50 <Descriptor_SetInterruptGate>
f00013d5:	58                   	pop    %eax
f00013d6:	5a                   	pop    %edx
f00013d7:	68 9a 0b 00 f0       	push   $0xf0000b9a
f00013dc:	6a 0a                	push   $0xa
f00013de:	e8 6d 16 00 00       	call   f0002a50 <Descriptor_SetInterruptGate>
f00013e3:	59                   	pop    %ecx
f00013e4:	5b                   	pop    %ebx
f00013e5:	68 d2 0b 00 f0       	push   $0xf0000bd2
f00013ea:	6a 0b                	push   $0xb
f00013ec:	e8 5f 16 00 00       	call   f0002a50 <Descriptor_SetInterruptGate>
f00013f1:	58                   	pop    %eax
f00013f2:	5a                   	pop    %edx
f00013f3:	68 0a 0c 00 f0       	push   $0xf0000c0a
f00013f8:	6a 0c                	push   $0xc
f00013fa:	e8 51 16 00 00       	call   f0002a50 <Descriptor_SetInterruptGate>
f00013ff:	59                   	pop    %ecx
f0001400:	5b                   	pop    %ebx
f0001401:	68 34 0c 00 f0       	push   $0xf0000c34
f0001406:	6a 0d                	push   $0xd
f0001408:	e8 43 16 00 00       	call   f0002a50 <Descriptor_SetInterruptGate>
f000140d:	58                   	pop    %eax
f000140e:	5a                   	pop    %edx
f000140f:	68 5e 0c 00 f0       	push   $0xf0000c5e
f0001414:	6a 0e                	push   $0xe
f0001416:	e8 35 16 00 00       	call   f0002a50 <Descriptor_SetInterruptGate>
f000141b:	59                   	pop    %ecx
f000141c:	5b                   	pop    %ebx
f000141d:	68 86 0c 00 f0       	push   $0xf0000c86
f0001422:	6a 20                	push   $0x20
f0001424:	e8 27 16 00 00       	call   f0002a50 <Descriptor_SetInterruptGate>
f0001429:	58                   	pop    %eax
f000142a:	5a                   	pop    %edx
f000142b:	68 bb 0c 00 f0       	push   $0xf0000cbb
f0001430:	6a 21                	push   $0x21
f0001432:	e8 19 16 00 00       	call   f0002a50 <Descriptor_SetInterruptGate>
f0001437:	59                   	pop    %ecx
f0001438:	5b                   	pop    %ebx
f0001439:	68 f0 0c 00 f0       	push   $0xf0000cf0
f000143e:	6a 22                	push   $0x22
f0001440:	e8 0b 16 00 00       	call   f0002a50 <Descriptor_SetInterruptGate>
f0001445:	58                   	pop    %eax
f0001446:	5a                   	pop    %edx
f0001447:	68 25 0d 00 f0       	push   $0xf0000d25
f000144c:	6a 23                	push   $0x23
f000144e:	e8 fd 15 00 00       	call   f0002a50 <Descriptor_SetInterruptGate>
f0001453:	59                   	pop    %ecx
f0001454:	5b                   	pop    %ebx
f0001455:	68 5a 0d 00 f0       	push   $0xf0000d5a
f000145a:	6a 24                	push   $0x24
f000145c:	e8 ef 15 00 00       	call   f0002a50 <Descriptor_SetInterruptGate>
f0001461:	58                   	pop    %eax
f0001462:	5a                   	pop    %edx
f0001463:	68 8f 0d 00 f0       	push   $0xf0000d8f
f0001468:	6a 25                	push   $0x25
f000146a:	e8 e1 15 00 00       	call   f0002a50 <Descriptor_SetInterruptGate>
f000146f:	59                   	pop    %ecx
f0001470:	5b                   	pop    %ebx
f0001471:	68 c4 0d 00 f0       	push   $0xf0000dc4
f0001476:	6a 26                	push   $0x26
f0001478:	e8 d3 15 00 00       	call   f0002a50 <Descriptor_SetInterruptGate>
f000147d:	58                   	pop    %eax
f000147e:	5a                   	pop    %edx
f000147f:	68 f9 0d 00 f0       	push   $0xf0000df9
f0001484:	6a 27                	push   $0x27
f0001486:	e8 c5 15 00 00       	call   f0002a50 <Descriptor_SetInterruptGate>
f000148b:	59                   	pop    %ecx
f000148c:	5b                   	pop    %ebx
f000148d:	68 2e 0e 00 f0       	push   $0xf0000e2e
f0001492:	6a 28                	push   $0x28
f0001494:	e8 b7 15 00 00       	call   f0002a50 <Descriptor_SetInterruptGate>
f0001499:	58                   	pop    %eax
f000149a:	5a                   	pop    %edx
f000149b:	68 63 0e 00 f0       	push   $0xf0000e63
f00014a0:	6a 29                	push   $0x29
f00014a2:	e8 a9 15 00 00       	call   f0002a50 <Descriptor_SetInterruptGate>
f00014a7:	59                   	pop    %ecx
f00014a8:	5b                   	pop    %ebx
f00014a9:	68 98 0e 00 f0       	push   $0xf0000e98
f00014ae:	6a 2a                	push   $0x2a
f00014b0:	e8 9b 15 00 00       	call   f0002a50 <Descriptor_SetInterruptGate>
f00014b5:	58                   	pop    %eax
f00014b6:	5a                   	pop    %edx
f00014b7:	68 cd 0e 00 f0       	push   $0xf0000ecd
f00014bc:	6a 2b                	push   $0x2b
f00014be:	e8 8d 15 00 00       	call   f0002a50 <Descriptor_SetInterruptGate>
f00014c3:	59                   	pop    %ecx
f00014c4:	5b                   	pop    %ebx
f00014c5:	68 02 0f 00 f0       	push   $0xf0000f02
f00014ca:	6a 2c                	push   $0x2c
f00014cc:	e8 7f 15 00 00       	call   f0002a50 <Descriptor_SetInterruptGate>
f00014d1:	58                   	pop    %eax
f00014d2:	5a                   	pop    %edx
f00014d3:	68 37 0f 00 f0       	push   $0xf0000f37
f00014d8:	6a 2d                	push   $0x2d
f00014da:	e8 71 15 00 00       	call   f0002a50 <Descriptor_SetInterruptGate>
f00014df:	59                   	pop    %ecx
f00014e0:	5b                   	pop    %ebx
f00014e1:	68 6c 0f 00 f0       	push   $0xf0000f6c
f00014e6:	6a 2e                	push   $0x2e
f00014e8:	e8 63 15 00 00       	call   f0002a50 <Descriptor_SetInterruptGate>
f00014ed:	58                   	pop    %eax
f00014ee:	5a                   	pop    %edx
f00014ef:	68 a1 0f 00 f0       	push   $0xf0000fa1
f00014f4:	6a 2f                	push   $0x2f
f00014f6:	e8 55 15 00 00       	call   f0002a50 <Descriptor_SetInterruptGate>
f00014fb:	0f 01 1d 4c 08 00 f0 	lidtl  0xf000084c
f0001502:	8b 5d fc             	mov    0xfffffffc(%ebp),%ebx
f0001505:	c9                   	leave  
f0001506:	c3                   	ret    
f0001507:	89 f6                	mov    %esi,%esi
f0001509:	8d bc 27 00 00 00 00 	lea    0x0(%edi),%edi

f0001510 <Interrupt_Handle>:
f0001510:	55                   	push   %ebp
f0001511:	89 e5                	mov    %esp,%ebp
f0001513:	57                   	push   %edi
f0001514:	56                   	push   %esi
f0001515:	53                   	push   %ebx
f0001516:	83 ec 0c             	sub    $0xc,%esp
f0001519:	8b 75 08             	mov    0x8(%ebp),%esi
f000151c:	8b 7d 0c             	mov    0xc(%ebp),%edi
f000151f:	8b 14 b5 20 4a 00 f0 	mov    0xf0004a20(,%esi,4),%edx
f0001526:	85 d2                	test   %edx,%edx
f0001528:	75 36                	jne    f0001560 <Interrupt_Handle+0x50>
f000152a:	e8 81 fd ff ff       	call   f00012b0 <Syslog_Lock>
f000152f:	50                   	push   %eax
f0001530:	56                   	push   %esi
f0001531:	68 0f 40 00 f0       	push   $0xf000400f
f0001536:	68 2d 40 00 f0       	push   $0xf000402d
f000153b:	e8 70 fc ff ff       	call   f00011b0 <Syslog_Entry>
f0001540:	e8 9b fd ff ff       	call   f00012e0 <Syslog_Unlock>
f0001545:	83 c4 10             	add    $0x10,%esp
f0001548:	89 f1                	mov    %esi,%ecx
f000154a:	81 e1 ff ff 00 00    	and    $0xffff,%ecx
f0001550:	89 4d 08             	mov    %ecx,0x8(%ebp)
f0001553:	8d 65 f4             	lea    0xfffffff4(%ebp),%esp
f0001556:	5b                   	pop    %ebx
f0001557:	5e                   	pop    %esi
f0001558:	5f                   	pop    %edi
f0001559:	5d                   	pop    %ebp
f000155a:	e9 a1 10 00 00       	jmp    f0002600 <PIC_EnableIRQ>
f000155f:	90                   	nop    
f0001560:	83 ec 0c             	sub    $0xc,%esp
f0001563:	89 f2                	mov    %esi,%edx
f0001565:	81 e2 ff ff 00 00    	and    $0xffff,%edx
f000156b:	52                   	push   %edx
f000156c:	e8 0f 11 00 00       	call   f0002680 <PIC_MaskAndAcknowledge>
f0001571:	8b 1c b5 20 4a 00 f0 	mov    0xf0004a20(,%esi,4),%ebx
f0001578:	83 c4 10             	add    $0x10,%esp
f000157b:	85 db                	test   %ebx,%ebx
f000157d:	74 c9                	je     f0001548 <Interrupt_Handle+0x38>
f000157f:	90                   	nop    
f0001580:	83 ec 0c             	sub    $0xc,%esp
f0001583:	57                   	push   %edi
f0001584:	ff 13                	call   *(%ebx)
f0001586:	83 c4 10             	add    $0x10,%esp
f0001589:	85 c0                	test   %eax,%eax
f000158b:	74 bb                	je     f0001548 <Interrupt_Handle+0x38>
f000158d:	8b 5b 04             	mov    0x4(%ebx),%ebx
f0001590:	85 db                	test   %ebx,%ebx
f0001592:	75 ec                	jne    f0001580 <Interrupt_Handle+0x70>
f0001594:	e8 17 fd ff ff       	call   f00012b0 <Syslog_Lock>
f0001599:	50                   	push   %eax
f000159a:	56                   	push   %esi
f000159b:	68 37 40 00 f0       	push   $0xf0004037
f00015a0:	eb 94                	jmp    f0001536 <Interrupt_Handle+0x26>
f00015a2:	8d b4 26 00 00 00 00 	lea    0x0(%esi),%esi
f00015a9:	8d bc 27 00 00 00 00 	lea    0x0(%edi),%edi

f00015b0 <Interrupt_AttachHandler>:
f00015b0:	55                   	push   %ebp
f00015b1:	89 e5                	mov    %esp,%ebp
f00015b3:	53                   	push   %ebx
f00015b4:	52                   	push   %edx
f00015b5:	8b 5d 08             	mov    0x8(%ebp),%ebx
f00015b8:	80 3d 01 4a 00 f0 01 	cmpb   $0x1,0xf0004a01
f00015bf:	74 46                	je     f0001607 <Interrupt_AttachHandler+0x57>
f00015c1:	83 ec 0c             	sub    $0xc,%esp
f00015c4:	6a 08                	push   $0x8
f00015c6:	e8 15 0c 00 00       	call   f00021e0 <MM_KAlloc>
f00015cb:	8b 4d 0c             	mov    0xc(%ebp),%ecx
f00015ce:	83 c4 10             	add    $0x10,%esp
f00015d1:	89 08                	mov    %ecx,(%eax)
f00015d3:	8b 0c 9d 20 4a 00 f0 	mov    0xf0004a20(,%ebx,4),%ecx
f00015da:	85 c9                	test   %ecx,%ecx
f00015dc:	0f 94 c2             	sete   %dl
f00015df:	81 e2 ff 00 00 00    	and    $0xff,%edx
f00015e5:	4a                   	dec    %edx
f00015e6:	21 d1                	and    %edx,%ecx
f00015e8:	89 48 04             	mov    %ecx,0x4(%eax)
f00015eb:	89 04 9d 20 4a 00 f0 	mov    %eax,0xf0004a20(,%ebx,4)
f00015f2:	80 3d 01 4a 00 f0 01 	cmpb   $0x1,0xf0004a01
f00015f9:	74 09                	je     f0001604 <Interrupt_AttachHandler+0x54>
f00015fb:	8b 5d fc             	mov    0xfffffffc(%ebp),%ebx
f00015fe:	31 c0                	xor    %eax,%eax
f0001600:	89 ec                	mov    %ebp,%esp
f0001602:	5d                   	pop    %ebp
f0001603:	c3                   	ret    
f0001604:	fb                   	sti    
f0001605:	eb f4                	jmp    f00015fb <Interrupt_AttachHandler+0x4b>
f0001607:	fa                   	cli    
f0001608:	eb b7                	jmp    f00015c1 <Interrupt_AttachHandler+0x11>
f000160a:	8d b6 00 00 00 00    	lea    0x0(%esi),%esi

f0001610 <Interrupt_EnableIRQ>:
f0001610:	55                   	push   %ebp
f0001611:	89 e5                	mov    %esp,%ebp
f0001613:	83 ec 14             	sub    $0x14,%esp
f0001616:	8b 55 08             	mov    0x8(%ebp),%edx
f0001619:	81 e2 ff ff 00 00    	and    $0xffff,%edx
f000161f:	52                   	push   %edx
f0001620:	e8 db 0f 00 00       	call   f0002600 <PIC_EnableIRQ>
f0001625:	31 c0                	xor    %eax,%eax
f0001627:	89 ec                	mov    %ebp,%esp
f0001629:	5d                   	pop    %ebp
f000162a:	c3                   	ret    
f000162b:	00 00                	add    %al,(%eax)
f000162d:	00 00                	add    %al,(%eax)
	...

f0001630 <MM_Init>:
f0001630:	55                   	push   %ebp
f0001631:	89 e5                	mov    %esp,%ebp
f0001633:	57                   	push   %edi
f0001634:	56                   	push   %esi
f0001635:	53                   	push   %ebx
f0001636:	83 ec 2c             	sub    $0x2c,%esp
f0001639:	8b 55 08             	mov    0x8(%ebp),%edx
f000163c:	89 55 f0             	mov    %edx,0xfffffff0(%ebp)
f000163f:	f6 02 40             	testb  $0x40,(%edx)
f0001642:	0f 84 b5 03 00 00    	je     f00019fd <MM_Init+0x3cd>
f0001648:	8b 5d f0             	mov    0xfffffff0(%ebp),%ebx
f000164b:	c7 05 c0 4b 00 f0 00 	movl   $0x0,0xf0004bc0
f0001652:	00 00 00 
f0001655:	b8 ab aa aa aa       	mov    $0xaaaaaaab,%eax
f000165a:	8b 4d f0             	mov    0xfffffff0(%ebp),%ecx
f000165d:	f7 63 2c             	mull   0x2c(%ebx)
f0001660:	c7 45 e8 00 00 00 00 	movl   $0x0,0xffffffe8(%ebp)
f0001667:	c7 45 e4 00 00 00 00 	movl   $0x0,0xffffffe4(%ebp)
f000166e:	c1 ea 04             	shr    $0x4,%edx
f0001671:	8b 59 30             	mov    0x30(%ecx),%ebx
f0001674:	89 55 ec             	mov    %edx,0xffffffec(%ebp)
f0001677:	39 55 e8             	cmp    %edx,0xffffffe8(%ebp)
f000167a:	73 26                	jae    f00016a2 <MM_Init+0x72>
f000167c:	8d 74 26 00          	lea    0x0(%esi),%esi
f0001680:	83 7b 14 01          	cmpl   $0x1,0x14(%ebx)
f0001684:	0f 84 ec 02 00 00    	je     f0001976 <MM_Init+0x346>
f000168a:	89 d9                	mov    %ebx,%ecx
f000168c:	8b 03                	mov    (%ebx),%eax
f000168e:	8b 75 e4             	mov    0xffffffe4(%ebp),%esi
f0001691:	01 c1                	add    %eax,%ecx
f0001693:	46                   	inc    %esi
f0001694:	8b 7d ec             	mov    0xffffffec(%ebp),%edi
f0001697:	89 75 e4             	mov    %esi,0xffffffe4(%ebp)
f000169a:	8d 59 04             	lea    0x4(%ecx),%ebx
f000169d:	39 7d e4             	cmp    %edi,0xffffffe4(%ebp)
f00016a0:	72 de                	jb     f0001680 <MM_Init+0x50>
f00016a2:	8b 55 e8             	mov    0xffffffe8(%ebp),%edx
f00016a5:	89 d3                	mov    %edx,%ebx
f00016a7:	89 15 74 4a 00 f0    	mov    %edx,0xf0004a74
f00016ad:	c1 e3 02             	shl    $0x2,%ebx
f00016b0:	89 1d 78 4a 00 f0    	mov    %ebx,0xf0004a78
f00016b6:	81 c3 ff 0f 00 00    	add    $0xfff,%ebx
f00016bc:	e8 ef fb ff ff       	call   f00012b0 <Syslog_Lock>
f00016c1:	50                   	push   %eax
f00016c2:	8b 0d 64 4a 00 f0    	mov    0xf0004a64,%ecx
f00016c8:	51                   	push   %ecx
f00016c9:	68 50 40 00 f0       	push   $0xf0004050
f00016ce:	68 e7 3f 00 f0       	push   $0xf0003fe7
f00016d3:	e8 d8 fa ff ff       	call   f00011b0 <Syslog_Entry>
f00016d8:	8b 35 74 4a 00 f0    	mov    0xf0004a74,%esi
f00016de:	56                   	push   %esi
f00016df:	8b 3d 78 4a 00 f0    	mov    0xf0004a78,%edi
f00016e5:	57                   	push   %edi
f00016e6:	68 84 40 00 f0       	push   $0xf0004084
f00016eb:	68 e7 3f 00 f0       	push   $0xf0003fe7
f00016f0:	e8 bb fa ff ff       	call   f00011b0 <Syslog_Entry>
f00016f5:	83 c4 20             	add    $0x20,%esp
f00016f8:	e8 e3 fb ff ff       	call   f00012e0 <Syslog_Unlock>
f00016fd:	83 ec 0c             	sub    $0xc,%esp
f0001700:	89 5d e8             	mov    %ebx,0xffffffe8(%ebp)
f0001703:	8b 1d 64 4a 00 f0    	mov    0xf0004a64,%ebx
f0001709:	8b 55 e8             	mov    0xffffffe8(%ebp),%edx
f000170c:	89 1d 7c 4a 00 f0    	mov    %ebx,0xf0004a7c
f0001712:	c1 ea 0c             	shr    $0xc,%edx
f0001715:	89 55 e8             	mov    %edx,0xffffffe8(%ebp)
f0001718:	8b 7d e8             	mov    0xffffffe8(%ebp),%edi
f000171b:	c1 e7 0c             	shl    $0xc,%edi
f000171e:	8d 87 00 00 30 00    	lea    0x300000(%edi),%eax
f0001724:	89 45 e0             	mov    %eax,0xffffffe0(%ebp)
f0001727:	6a 01                	push   $0x1
f0001729:	6a 00                	push   $0x0
f000172b:	8b 4d e8             	mov    0xffffffe8(%ebp),%ecx
f000172e:	51                   	push   %ecx
f000172f:	53                   	push   %ebx
f0001730:	68 00 00 30 00       	push   $0x300000
f0001735:	e8 46 06 00 00       	call   f0001d80 <MM_Page_Map>
f000173a:	8b 35 64 4a 00 f0    	mov    0xf0004a64,%esi
f0001740:	8b 55 f0             	mov    0xfffffff0(%ebp),%edx
f0001743:	01 fe                	add    %edi,%esi
f0001745:	c7 05 80 4a 00 f0 00 	movl   $0x0,0xf0004a80
f000174c:	00 00 00 
f000174f:	c7 45 e4 00 00 00 00 	movl   $0x0,0xffffffe4(%ebp)
f0001756:	8b 7d ec             	mov    0xffffffec(%ebp),%edi
f0001759:	83 c4 20             	add    $0x20,%esp
f000175c:	89 35 64 4a 00 f0    	mov    %esi,0xf0004a64
f0001762:	8b 5a 30             	mov    0x30(%edx),%ebx
f0001765:	39 7d e4             	cmp    %edi,0xffffffe4(%ebp)
f0001768:	73 38                	jae    f00017a2 <MM_Init+0x172>
f000176a:	8b 3d 60 4a 00 f0    	mov    0xf0004a60,%edi
f0001770:	a1 7c 4a 00 f0       	mov    0xf0004a7c,%eax
f0001775:	c1 e7 0c             	shl    $0xc,%edi
f0001778:	89 45 d0             	mov    %eax,0xffffffd0(%ebp)
f000177b:	89 7d dc             	mov    %edi,0xffffffdc(%ebp)
f000177e:	89 f6                	mov    %esi,%esi
f0001780:	83 7b 14 01          	cmpl   $0x1,0x14(%ebx)
f0001784:	0f 84 69 01 00 00    	je     f00018f3 <MM_Init+0x2c3>
f000178a:	89 de                	mov    %ebx,%esi
f000178c:	8b 03                	mov    (%ebx),%eax
f000178e:	8b 55 e4             	mov    0xffffffe4(%ebp),%edx
f0001791:	01 c6                	add    %eax,%esi
f0001793:	42                   	inc    %edx
f0001794:	8b 4d ec             	mov    0xffffffec(%ebp),%ecx
f0001797:	89 55 e4             	mov    %edx,0xffffffe4(%ebp)
f000179a:	8d 5e 04             	lea    0x4(%esi),%ebx
f000179d:	39 4d e4             	cmp    %ecx,0xffffffe4(%ebp)
f00017a0:	72 de                	jb     f0001780 <MM_Init+0x150>
f00017a2:	8b 0d 80 4a 00 f0    	mov    0xf0004a80,%ecx
f00017a8:	49                   	dec    %ecx
f00017a9:	89 0d 80 4a 00 f0    	mov    %ecx,0xf0004a80
f00017af:	e8 fc fa ff ff       	call   f00012b0 <Syslog_Lock>
f00017b4:	8b 15 64 4a 00 f0    	mov    0xf0004a64,%edx
f00017ba:	52                   	push   %edx
f00017bb:	8b 3d 7c 4a 00 f0    	mov    0xf0004a7c,%edi
f00017c1:	57                   	push   %edi
f00017c2:	68 ac 40 00 f0       	push   $0xf00040ac
f00017c7:	68 e7 3f 00 f0       	push   $0xf0003fe7
f00017cc:	e8 df f9 ff ff       	call   f00011b0 <Syslog_Entry>
f00017d1:	8b 5d e8             	mov    0xffffffe8(%ebp),%ebx
f00017d4:	53                   	push   %ebx
f00017d5:	8b 75 e8             	mov    0xffffffe8(%ebp),%esi
f00017d8:	c1 e6 02             	shl    $0x2,%esi
f00017db:	56                   	push   %esi
f00017dc:	68 d0 40 00 f0       	push   $0xf00040d0
f00017e1:	68 e7 3f 00 f0       	push   $0xf0003fe7
f00017e6:	e8 c5 f9 ff ff       	call   f00011b0 <Syslog_Entry>
f00017eb:	83 c4 20             	add    $0x20,%esp
f00017ee:	e8 ed fa ff ff       	call   f00012e0 <Syslog_Unlock>
f00017f3:	c7 05 84 4a 00 f0 00 	movl   $0x7c00,0xf0004a84
f00017fa:	7c 00 00 
f00017fd:	c7 05 88 4a 00 f0 00 	movl   $0xf8000000,0xf0004a88
f0001804:	00 00 f8 
f0001807:	c7 05 8c 4a 00 f0 00 	movl   $0xffc00000,0xf0004a8c
f000180e:	00 c0 ff 
f0001811:	57                   	push   %edi
f0001812:	68 00 7c 00 00       	push   $0x7c00
f0001817:	68 00 00 00 f8       	push   $0xf8000000
f000181c:	68 90 4a 00 f0       	push   $0xf0004a90
f0001821:	e8 aa 0a 00 00       	call   f00022d0 <MM_AllocInit>
f0001826:	e8 85 fa ff ff       	call   f00012b0 <Syslog_Lock>
f000182b:	a1 8c 4a 00 f0       	mov    0xf0004a8c,%eax
f0001830:	50                   	push   %eax
f0001831:	8b 0d 88 4a 00 f0    	mov    0xf0004a88,%ecx
f0001837:	51                   	push   %ecx
f0001838:	68 65 40 00 f0       	push   $0xf0004065
f000183d:	68 e7 3f 00 f0       	push   $0xf0003fe7
f0001842:	e8 69 f9 ff ff       	call   f00011b0 <Syslog_Entry>
f0001847:	83 c4 20             	add    $0x20,%esp
f000184a:	8b 15 84 4a 00 f0    	mov    0xf0004a84,%edx
f0001850:	52                   	push   %edx
f0001851:	8b 3d 84 4a 00 f0    	mov    0xf0004a84,%edi
f0001857:	c1 e7 02             	shl    $0x2,%edi
f000185a:	57                   	push   %edi
f000185b:	68 d0 40 00 f0       	push   $0xf00040d0
f0001860:	68 e7 3f 00 f0       	push   $0xf0003fe7
f0001865:	e8 46 f9 ff ff       	call   f00011b0 <Syslog_Entry>
f000186a:	e8 71 fa ff ff       	call   f00012e0 <Syslog_Unlock>
f000186f:	e8 3c fa ff ff       	call   f00012b0 <Syslog_Lock>
f0001874:	68 00 00 00 d0       	push   $0xd0000000
f0001879:	68 00 00 00 c0       	push   $0xc0000000
f000187e:	68 f4 40 00 f0       	push   $0xf00040f4
f0001883:	68 e7 3f 00 f0       	push   $0xf0003fe7
f0001888:	e8 23 f9 ff ff       	call   f00011b0 <Syslog_Entry>
f000188d:	83 c4 20             	add    $0x20,%esp
f0001890:	68 00 00 01 00       	push   $0x10000
f0001895:	68 00 00 04 00       	push   $0x40000
f000189a:	68 20 41 00 f0       	push   $0xf0004120
f000189f:	68 e7 3f 00 f0       	push   $0xf0003fe7
f00018a4:	e8 07 f9 ff ff       	call   f00011b0 <Syslog_Entry>
f00018a9:	e8 32 fa ff ff       	call   f00012e0 <Syslog_Unlock>
f00018ae:	58                   	pop    %eax
f00018af:	5a                   	pop    %edx
f00018b0:	68 00 04 00 00       	push   $0x400
f00018b5:	6a 00                	push   $0x0
f00018b7:	e8 44 06 00 00       	call   f0001f00 <MM_Page_Unmap>
f00018bc:	83 c4 10             	add    $0x10,%esp
f00018bf:	8b 1d 6c 4a 00 f0    	mov    0xf0004a6c,%ebx
f00018c5:	c7 03 00 00 00 00    	movl   $0x0,(%ebx)
f00018cb:	0f 20 d8             	mov    %cr3,%eax
f00018ce:	0f 22 d8             	mov    %eax,%cr3
f00018d1:	e8 da 0e 00 00       	call   f00027b0 <TextModeVideo_PostMMInit>
f00018d6:	c7 05 a0 4a 00 f0 e0 	movl   $0xf00053e0,0xf0004aa0
f00018dd:	53 00 f0 
f00018e0:	c7 45 08 e0 53 00 f0 	movl   $0xf00053e0,0x8(%ebp)
f00018e7:	8d 65 f4             	lea    0xfffffff4(%ebp),%esp
f00018ea:	5b                   	pop    %ebx
f00018eb:	5e                   	pop    %esi
f00018ec:	5f                   	pop    %edi
f00018ed:	5d                   	pop    %ebp
f00018ee:	e9 bd 0a 00 00       	jmp    f00023b0 <MM_ZeroPageStruct>
f00018f3:	8b 4b 10             	mov    0x10(%ebx),%ecx
f00018f6:	8b 53 08             	mov    0x8(%ebx),%edx
f00018f9:	c1 e1 08             	shl    $0x8,%ecx
f00018fc:	8b 7b 0c             	mov    0xc(%ebx),%edi
f00018ff:	c1 e2 08             	shl    $0x8,%edx
f0001902:	8b 73 04             	mov    0x4(%ebx),%esi
f0001905:	01 f9                	add    %edi,%ecx
f0001907:	01 f2                	add    %esi,%edx
f0001909:	c1 e9 0c             	shr    $0xc,%ecx
f000190c:	31 f6                	xor    %esi,%esi
f000190e:	39 ce                	cmp    %ecx,%esi
f0001910:	0f 83 74 fe ff ff    	jae    f000178a <MM_Init+0x15a>
f0001916:	8b 7d dc             	mov    0xffffffdc(%ebp),%edi
f0001919:	8b 45 d0             	mov    0xffffffd0(%ebp),%eax
f000191c:	81 c7 00 00 10 00    	add    $0x100000,%edi
f0001922:	89 45 d4             	mov    %eax,0xffffffd4(%ebp)
f0001925:	89 7d d8             	mov    %edi,0xffffffd8(%ebp)
f0001928:	8b 3d 80 4a 00 f0    	mov    0xf0004a80,%edi
f000192e:	89 f6                	mov    %esi,%esi
f0001930:	81 fa ff ff 0f 00    	cmp    $0xfffff,%edx
f0001936:	76 05                	jbe    f000193d <MM_Init+0x30d>
f0001938:	3b 55 d8             	cmp    0xffffffd8(%ebp),%edx
f000193b:	72 23                	jb     f0001960 <MM_Init+0x330>
f000193d:	8d 82 00 00 e0 ff    	lea    0xffe00000(%edx),%eax
f0001943:	3d ff 1f 01 00       	cmp    $0x11fff,%eax
f0001948:	76 16                	jbe    f0001960 <MM_Init+0x330>
f000194a:	81 fa 00 00 30 00    	cmp    $0x300000,%edx
f0001950:	72 05                	jb     f0001957 <MM_Init+0x327>
f0001952:	3b 55 e0             	cmp    0xffffffe0(%ebp),%edx
f0001955:	72 09                	jb     f0001960 <MM_Init+0x330>
f0001957:	8b 45 d4             	mov    0xffffffd4(%ebp),%eax
f000195a:	8d 04 b8             	lea    (%eax,%edi,4),%eax
f000195d:	47                   	inc    %edi
f000195e:	89 10                	mov    %edx,(%eax)
f0001960:	46                   	inc    %esi
f0001961:	81 c2 00 10 00 00    	add    $0x1000,%edx
f0001967:	39 ce                	cmp    %ecx,%esi
f0001969:	72 c5                	jb     f0001930 <MM_Init+0x300>
f000196b:	89 3d 80 4a 00 f0    	mov    %edi,0xf0004a80
f0001971:	e9 14 fe ff ff       	jmp    f000178a <MM_Init+0x15a>
f0001976:	8b 7b 08             	mov    0x8(%ebx),%edi
f0001979:	8b 73 04             	mov    0x4(%ebx),%esi
f000197c:	c1 e7 08             	shl    $0x8,%edi
f000197f:	8b 53 0c             	mov    0xc(%ebx),%edx
f0001982:	01 f7                	add    %esi,%edi
f0001984:	8b 73 10             	mov    0x10(%ebx),%esi
f0001987:	c1 e6 08             	shl    $0x8,%esi
f000198a:	01 d6                	add    %edx,%esi
f000198c:	c1 ee 0c             	shr    $0xc,%esi
f000198f:	f7 c7 ff 0f 00 00    	test   $0xfff,%edi
f0001995:	75 36                	jne    f00019cd <MM_Init+0x39d>
f0001997:	8b 45 e8             	mov    0xffffffe8(%ebp),%eax
f000199a:	01 f0                	add    %esi,%eax
f000199c:	89 45 e8             	mov    %eax,0xffffffe8(%ebp)
f000199f:	e8 0c f9 ff ff       	call   f00012b0 <Syslog_Lock>
f00019a4:	8d 14 b5 00 00 00 00 	lea    0x0(,%esi,4),%edx
f00019ab:	83 ec 0c             	sub    $0xc,%esp
f00019ae:	56                   	push   %esi
f00019af:	52                   	push   %edx
f00019b0:	57                   	push   %edi
f00019b1:	68 44 41 00 f0       	push   $0xf0004144
f00019b6:	68 e7 3f 00 f0       	push   $0xf0003fe7
f00019bb:	e8 f0 f7 ff ff       	call   f00011b0 <Syslog_Entry>
f00019c0:	83 c4 20             	add    $0x20,%esp
f00019c3:	e8 18 f9 ff ff       	call   f00012e0 <Syslog_Unlock>
f00019c8:	e9 bd fc ff ff       	jmp    f000168a <MM_Init+0x5a>
f00019cd:	e8 de f8 ff ff       	call   f00012b0 <Syslog_Lock>
f00019d2:	8d 0c b5 00 00 00 00 	lea    0x0(,%esi,4),%ecx
f00019d9:	83 ec 0c             	sub    $0xc,%esp
f00019dc:	56                   	push   %esi
f00019dd:	51                   	push   %ecx
f00019de:	57                   	push   %edi
f00019df:	68 68 41 00 f0       	push   $0xf0004168
f00019e4:	68 e7 3f 00 f0       	push   $0xf0003fe7
f00019e9:	e8 c2 f7 ff ff       	call   f00011b0 <Syslog_Entry>
f00019ee:	83 c4 20             	add    $0x20,%esp
f00019f1:	e8 ea f8 ff ff       	call   f00012e0 <Syslog_Unlock>
f00019f6:	e8 84 ef ff ff       	call   f000097f <halt>
f00019fb:	eb 9a                	jmp    f0001997 <MM_Init+0x367>
f00019fd:	e8 ae f8 ff ff       	call   f00012b0 <Syslog_Lock>
f0001a02:	50                   	push   %eax
f0001a03:	50                   	push   %eax
f0001a04:	68 a8 41 00 f0       	push   $0xf00041a8
f0001a09:	68 e7 3f 00 f0       	push   $0xf0003fe7
f0001a0e:	e8 9d f7 ff ff       	call   f00011b0 <Syslog_Entry>
f0001a13:	e8 c8 f8 ff ff       	call   f00012e0 <Syslog_Unlock>
f0001a18:	e8 62 ef ff ff       	call   f000097f <halt>
f0001a1d:	83 c4 10             	add    $0x10,%esp
f0001a20:	e9 23 fc ff ff       	jmp    f0001648 <MM_Init+0x18>
f0001a25:	8d 74 26 00          	lea    0x0(%esi),%esi
f0001a29:	8d bc 27 00 00 00 00 	lea    0x0(%edi),%edi

f0001a30 <MM_LockInit>:
f0001a30:	55                   	push   %ebp
f0001a31:	c7 05 c0 4b 00 f0 00 	movl   $0x0,0xf0004bc0
f0001a38:	00 00 00 
f0001a3b:	89 e5                	mov    %esp,%ebp
f0001a3d:	5d                   	pop    %ebp
f0001a3e:	c3                   	ret    
f0001a3f:	90                   	nop    

f0001a40 <MM_Lock>:
f0001a40:	55                   	push   %ebp
f0001a41:	89 e5                	mov    %esp,%ebp
f0001a43:	80 3d 01 4a 00 f0 01 	cmpb   $0x1,0xf0004a01
f0001a4a:	74 04                	je     f0001a50 <MM_Lock+0x10>
f0001a4c:	5d                   	pop    %ebp
f0001a4d:	c3                   	ret    
f0001a4e:	89 f6                	mov    %esi,%esi
f0001a50:	ba 01 00 00 00       	mov    $0x1,%edx
f0001a55:	89 d1                	mov    %edx,%ecx
f0001a57:	87 0d c0 4b 00 f0    	xchg   %ecx,0xf0004bc0
f0001a5d:	85 c9                	test   %ecx,%ecx
f0001a5f:	75 f4                	jne    f0001a55 <MM_Lock+0x15>
f0001a61:	eb e9                	jmp    f0001a4c <MM_Lock+0xc>
f0001a63:	8d b6 00 00 00 00    	lea    0x0(%esi),%esi
f0001a69:	8d bc 27 00 00 00 00 	lea    0x0(%edi),%edi

f0001a70 <MM_Unlock>:
f0001a70:	55                   	push   %ebp
f0001a71:	89 e5                	mov    %esp,%ebp
f0001a73:	80 3d 01 4a 00 f0 01 	cmpb   $0x1,0xf0004a01
f0001a7a:	74 04                	je     f0001a80 <MM_Unlock+0x10>
f0001a7c:	5d                   	pop    %ebp
f0001a7d:	c3                   	ret    
f0001a7e:	89 f6                	mov    %esi,%esi
f0001a80:	c7 05 c0 4b 00 f0 00 	movl   $0x0,0xf0004bc0
f0001a87:	00 00 00 
f0001a8a:	eb f0                	jmp    f0001a7c <MM_Unlock+0xc>
f0001a8c:	00 00                	add    %al,(%eax)
	...

f0001a90 <MM_Page_Free>:
f0001a90:	55                   	push   %ebp
f0001a91:	89 e5                	mov    %esp,%ebp
f0001a93:	57                   	push   %edi
f0001a94:	56                   	push   %esi
f0001a95:	53                   	push   %ebx
f0001a96:	83 ec 1c             	sub    $0x1c,%esp
f0001a99:	8b 5d 08             	mov    0x8(%ebp),%ebx
f0001a9c:	8b 0d 6c 4a 00 f0    	mov    0xf0004a6c,%ecx
f0001aa2:	c1 eb 16             	shr    $0x16,%ebx
f0001aa5:	8b 34 99             	mov    (%ecx,%ebx,4),%esi
f0001aa8:	83 e6 01             	and    $0x1,%esi
f0001aab:	75 4d                	jne    f0001afa <MM_Page_Free+0x6a>
f0001aad:	8b 15 80 4a 00 f0    	mov    0xf0004a80,%edx
f0001ab3:	83 fa ff             	cmp    $0xffffffff,%edx
f0001ab6:	0f 84 8f 01 00 00    	je     f0001c4b <MM_Page_Free+0x1bb>
f0001abc:	8b 3d 7c 4a 00 f0    	mov    0xf0004a7c,%edi
f0001ac2:	8d 04 97             	lea    (%edi,%edx,4),%eax
f0001ac5:	4a                   	dec    %edx
f0001ac6:	89 15 80 4a 00 f0    	mov    %edx,0xf0004a80
f0001acc:	8b 15 70 4a 00 f0    	mov    0xf0004a70,%edx
f0001ad2:	8b 38                	mov    (%eax),%edi
f0001ad4:	89 d8                	mov    %ebx,%eax
f0001ad6:	c1 e0 0c             	shl    $0xc,%eax
f0001ad9:	83 cf 03             	or     $0x3,%edi
f0001adc:	89 3c 99             	mov    %edi,(%ecx,%ebx,4)
f0001adf:	01 d0                	add    %edx,%eax
f0001ae1:	bf 00 04 00 00       	mov    $0x400,%edi
f0001ae6:	89 f1                	mov    %esi,%ecx
f0001ae8:	89 08                	mov    %ecx,(%eax)
f0001aea:	83 c0 04             	add    $0x4,%eax
f0001aed:	4f                   	dec    %edi
f0001aee:	75 f8                	jne    f0001ae8 <MM_Page_Free+0x58>
f0001af0:	8b 55 08             	mov    0x8(%ebp),%edx
f0001af3:	89 55 f0             	mov    %edx,0xfffffff0(%ebp)
f0001af6:	0f 01 7d f0          	invlpg 0xfffffff0(%ebp)
f0001afa:	c1 e3 16             	shl    $0x16,%ebx
f0001afd:	8b 7d 08             	mov    0x8(%ebp),%edi
f0001b00:	89 5d e8             	mov    %ebx,0xffffffe8(%ebp)
f0001b03:	29 df                	sub    %ebx,%edi
f0001b05:	8b 4d e8             	mov    0xffffffe8(%ebp),%ecx
f0001b08:	c7 45 e4 00 00 00 00 	movl   $0x0,0xffffffe4(%ebp)
f0001b0f:	c1 e9 0c             	shr    $0xc,%ecx
f0001b12:	8b 5d 0c             	mov    0xc(%ebp),%ebx
f0001b15:	c1 ef 0c             	shr    $0xc,%edi
f0001b18:	89 4d e8             	mov    %ecx,0xffffffe8(%ebp)
f0001b1b:	39 5d e4             	cmp    %ebx,0xffffffe4(%ebp)
f0001b1e:	73 64                	jae    f0001b84 <MM_Page_Free+0xf4>
f0001b20:	81 ff 00 04 00 00    	cmp    $0x400,%edi
f0001b26:	0f 84 8b 00 00 00    	je     f0001bb7 <MM_Page_Free+0x127>
f0001b2c:	8b 75 e8             	mov    0xffffffe8(%ebp),%esi
f0001b2f:	8b 15 70 4a 00 f0    	mov    0xf0004a70,%edx
f0001b35:	01 fe                	add    %edi,%esi
f0001b37:	8b 1c b2             	mov    (%edx,%esi,4),%ebx
f0001b3a:	f6 c3 01             	test   $0x1,%bl
f0001b3d:	74 29                	je     f0001b68 <MM_Page_Free+0xd8>
f0001b3f:	f7 c3 ff 0f 00 00    	test   $0xfff,%ebx
f0001b45:	75 4b                	jne    f0001b92 <MM_Page_Free+0x102>
f0001b47:	83 ec 0c             	sub    $0xc,%esp
f0001b4a:	81 e3 00 f0 ff ff    	and    $0xfffff000,%ebx
f0001b50:	53                   	push   %ebx
f0001b51:	e8 2a 01 00 00       	call   f0001c80 <MM_Page_AddFree>
f0001b56:	8b 1d 70 4a 00 f0    	mov    0xf0004a70,%ebx
f0001b5c:	83 c4 10             	add    $0x10,%esp
f0001b5f:	8b 04 b3             	mov    (%ebx,%esi,4),%eax
f0001b62:	83 f0 01             	xor    $0x1,%eax
f0001b65:	89 04 b3             	mov    %eax,(%ebx,%esi,4)
f0001b68:	8b 4d e4             	mov    0xffffffe4(%ebp),%ecx
f0001b6b:	8b 5d 08             	mov    0x8(%ebp),%ebx
f0001b6e:	41                   	inc    %ecx
f0001b6f:	81 c3 00 10 00 00    	add    $0x1000,%ebx
f0001b75:	89 4d e4             	mov    %ecx,0xffffffe4(%ebp)
f0001b78:	8b 75 0c             	mov    0xc(%ebp),%esi
f0001b7b:	47                   	inc    %edi
f0001b7c:	89 5d 08             	mov    %ebx,0x8(%ebp)
f0001b7f:	39 75 e4             	cmp    %esi,0xffffffe4(%ebp)
f0001b82:	72 9c                	jb     f0001b20 <MM_Page_Free+0x90>
f0001b84:	0f 20 d8             	mov    %cr3,%eax
f0001b87:	0f 22 d8             	mov    %eax,%cr3
f0001b8a:	8d 65 f4             	lea    0xfffffff4(%ebp),%esp
f0001b8d:	5b                   	pop    %ebx
f0001b8e:	5e                   	pop    %esi
f0001b8f:	5f                   	pop    %edi
f0001b90:	5d                   	pop    %ebp
f0001b91:	c3                   	ret    
f0001b92:	e8 19 f7 ff ff       	call   f00012b0 <Syslog_Lock>
f0001b97:	50                   	push   %eax
f0001b98:	53                   	push   %ebx
f0001b99:	68 e8 41 00 f0       	push   $0xf00041e8
f0001b9e:	68 e7 3f 00 f0       	push   $0xf0003fe7
f0001ba3:	e8 08 f6 ff ff       	call   f00011b0 <Syslog_Entry>
f0001ba8:	e8 33 f7 ff ff       	call   f00012e0 <Syslog_Unlock>
f0001bad:	e8 cd ed ff ff       	call   f000097f <halt>
f0001bb2:	83 c4 10             	add    $0x10,%esp
f0001bb5:	eb 90                	jmp    f0001b47 <MM_Page_Free+0xb7>
f0001bb7:	8b 5d 08             	mov    0x8(%ebp),%ebx
f0001bba:	8b 0d 6c 4a 00 f0    	mov    0xf0004a6c,%ecx
f0001bc0:	c1 eb 16             	shr    $0x16,%ebx
f0001bc3:	8b 34 99             	mov    (%ecx,%ebx,4),%esi
f0001bc6:	83 e6 01             	and    $0x1,%esi
f0001bc9:	75 42                	jne    f0001c0d <MM_Page_Free+0x17d>
f0001bcb:	8b 15 80 4a 00 f0    	mov    0xf0004a80,%edx
f0001bd1:	83 fa ff             	cmp    $0xffffffff,%edx
f0001bd4:	74 44                	je     f0001c1a <MM_Page_Free+0x18a>
f0001bd6:	8d 42 ff             	lea    0xffffffff(%edx),%eax
f0001bd9:	a3 80 4a 00 f0       	mov    %eax,0xf0004a80
f0001bde:	a1 7c 4a 00 f0       	mov    0xf0004a7c,%eax
f0001be3:	8b 04 90             	mov    (%eax,%edx,4),%eax
f0001be6:	83 c8 03             	or     $0x3,%eax
f0001be9:	89 04 99             	mov    %eax,(%ecx,%ebx,4)
f0001bec:	8b 0d 70 4a 00 f0    	mov    0xf0004a70,%ecx
f0001bf2:	89 d8                	mov    %ebx,%eax
f0001bf4:	c1 e0 0c             	shl    $0xc,%eax
f0001bf7:	01 c8                	add    %ecx,%eax
f0001bf9:	89 f1                	mov    %esi,%ecx
f0001bfb:	89 08                	mov    %ecx,(%eax)
f0001bfd:	83 c0 04             	add    $0x4,%eax
f0001c00:	4f                   	dec    %edi
f0001c01:	75 f8                	jne    f0001bfb <MM_Page_Free+0x16b>
f0001c03:	8b 75 08             	mov    0x8(%ebp),%esi
f0001c06:	89 75 ec             	mov    %esi,0xffffffec(%ebp)
f0001c09:	0f 01 7d ec          	invlpg 0xffffffec(%ebp)
f0001c0d:	c1 e3 0a             	shl    $0xa,%ebx
f0001c10:	31 ff                	xor    %edi,%edi
f0001c12:	89 5d e8             	mov    %ebx,0xffffffe8(%ebp)
f0001c15:	e9 12 ff ff ff       	jmp    f0001b2c <MM_Page_Free+0x9c>
f0001c1a:	e8 91 f6 ff ff       	call   f00012b0 <Syslog_Lock>
f0001c1f:	51                   	push   %ecx
f0001c20:	51                   	push   %ecx
f0001c21:	68 24 42 00 f0       	push   $0xf0004224
f0001c26:	68 e7 3f 00 f0       	push   $0xf0003fe7
f0001c2b:	e8 80 f5 ff ff       	call   f00011b0 <Syslog_Entry>
f0001c30:	83 c4 10             	add    $0x10,%esp
f0001c33:	e8 a8 f6 ff ff       	call   f00012e0 <Syslog_Unlock>
f0001c38:	e8 42 ed ff ff       	call   f000097f <halt>
f0001c3d:	8b 15 80 4a 00 f0    	mov    0xf0004a80,%edx
f0001c43:	8b 0d 6c 4a 00 f0    	mov    0xf0004a6c,%ecx
f0001c49:	eb 8b                	jmp    f0001bd6 <MM_Page_Free+0x146>
f0001c4b:	e8 60 f6 ff ff       	call   f00012b0 <Syslog_Lock>
f0001c50:	50                   	push   %eax
f0001c51:	50                   	push   %eax
f0001c52:	68 24 42 00 f0       	push   $0xf0004224
f0001c57:	68 e7 3f 00 f0       	push   $0xf0003fe7
f0001c5c:	e8 4f f5 ff ff       	call   f00011b0 <Syslog_Entry>
f0001c61:	83 c4 10             	add    $0x10,%esp
f0001c64:	e8 77 f6 ff ff       	call   f00012e0 <Syslog_Unlock>
f0001c69:	e8 11 ed ff ff       	call   f000097f <halt>
f0001c6e:	8b 15 80 4a 00 f0    	mov    0xf0004a80,%edx
f0001c74:	8b 0d 6c 4a 00 f0    	mov    0xf0004a6c,%ecx
f0001c7a:	e9 3d fe ff ff       	jmp    f0001abc <MM_Page_Free+0x2c>
f0001c7f:	90                   	nop    

f0001c80 <MM_Page_AddFree>:
f0001c80:	55                   	push   %ebp
f0001c81:	8b 0d 80 4a 00 f0    	mov    0xf0004a80,%ecx
f0001c87:	89 e5                	mov    %esp,%ebp
f0001c89:	41                   	inc    %ecx
f0001c8a:	8b 15 7c 4a 00 f0    	mov    0xf0004a7c,%edx
f0001c90:	89 0d 80 4a 00 f0    	mov    %ecx,0xf0004a80
f0001c96:	8b 45 08             	mov    0x8(%ebp),%eax
f0001c99:	89 04 8a             	mov    %eax,(%edx,%ecx,4)
f0001c9c:	5d                   	pop    %ebp
f0001c9d:	c3                   	ret    
f0001c9e:	89 f6                	mov    %esi,%esi

f0001ca0 <MM_GetPTAddress>:
f0001ca0:	55                   	push   %ebp
f0001ca1:	89 e5                	mov    %esp,%ebp
f0001ca3:	57                   	push   %edi
f0001ca4:	56                   	push   %esi
f0001ca5:	53                   	push   %ebx
f0001ca6:	83 ec 0c             	sub    $0xc,%esp
f0001ca9:	8b 7d 08             	mov    0x8(%ebp),%edi
f0001cac:	8b 0d 6c 4a 00 f0    	mov    0xf0004a6c,%ecx
f0001cb2:	89 fb                	mov    %edi,%ebx
f0001cb4:	c1 eb 16             	shr    $0x16,%ebx
f0001cb7:	8b 34 99             	mov    (%ecx,%ebx,4),%esi
f0001cba:	83 e6 01             	and    $0x1,%esi
f0001cbd:	75 44                	jne    f0001d03 <MM_GetPTAddress+0x63>
f0001cbf:	8b 15 80 4a 00 f0    	mov    0xf0004a80,%edx
f0001cc5:	83 fa ff             	cmp    $0xffffffff,%edx
f0001cc8:	74 46                	je     f0001d10 <MM_GetPTAddress+0x70>
f0001cca:	8d 42 ff             	lea    0xffffffff(%edx),%eax
f0001ccd:	a3 80 4a 00 f0       	mov    %eax,0xf0004a80
f0001cd2:	a1 7c 4a 00 f0       	mov    0xf0004a7c,%eax
f0001cd7:	8b 04 90             	mov    (%eax,%edx,4),%eax
f0001cda:	89 da                	mov    %ebx,%edx
f0001cdc:	c1 e2 0c             	shl    $0xc,%edx
f0001cdf:	83 c8 03             	or     $0x3,%eax
f0001ce2:	89 04 99             	mov    %eax,(%ecx,%ebx,4)
f0001ce5:	b8 00 04 00 00       	mov    $0x400,%eax
f0001cea:	8b 0d 70 4a 00 f0    	mov    0xf0004a70,%ecx
f0001cf0:	01 ca                	add    %ecx,%edx
f0001cf2:	89 f1                	mov    %esi,%ecx
f0001cf4:	89 0a                	mov    %ecx,(%edx)
f0001cf6:	83 c2 04             	add    $0x4,%edx
f0001cf9:	48                   	dec    %eax
f0001cfa:	75 f8                	jne    f0001cf4 <MM_GetPTAddress+0x54>
f0001cfc:	89 7d f0             	mov    %edi,0xfffffff0(%ebp)
f0001cff:	0f 01 7d f0          	invlpg 0xfffffff0(%ebp)
f0001d03:	c1 e3 16             	shl    $0x16,%ebx
f0001d06:	8d 65 f4             	lea    0xfffffff4(%ebp),%esp
f0001d09:	89 d8                	mov    %ebx,%eax
f0001d0b:	5b                   	pop    %ebx
f0001d0c:	5e                   	pop    %esi
f0001d0d:	5f                   	pop    %edi
f0001d0e:	5d                   	pop    %ebp
f0001d0f:	c3                   	ret    
f0001d10:	e8 9b f5 ff ff       	call   f00012b0 <Syslog_Lock>
f0001d15:	50                   	push   %eax
f0001d16:	50                   	push   %eax
f0001d17:	68 24 42 00 f0       	push   $0xf0004224
f0001d1c:	68 e7 3f 00 f0       	push   $0xf0003fe7
f0001d21:	e8 8a f4 ff ff       	call   f00011b0 <Syslog_Entry>
f0001d26:	83 c4 10             	add    $0x10,%esp
f0001d29:	e8 b2 f5 ff ff       	call   f00012e0 <Syslog_Unlock>
f0001d2e:	e8 4c ec ff ff       	call   f000097f <halt>
f0001d33:	8b 15 80 4a 00 f0    	mov    0xf0004a80,%edx
f0001d39:	8b 0d 6c 4a 00 f0    	mov    0xf0004a6c,%ecx
f0001d3f:	eb 89                	jmp    f0001cca <MM_GetPTAddress+0x2a>
f0001d41:	eb 0d                	jmp    f0001d50 <MM_GetPTValue>
f0001d43:	90                   	nop    
f0001d44:	90                   	nop    
f0001d45:	90                   	nop    
f0001d46:	90                   	nop    
f0001d47:	90                   	nop    
f0001d48:	90                   	nop    
f0001d49:	90                   	nop    
f0001d4a:	90                   	nop    
f0001d4b:	90                   	nop    
f0001d4c:	90                   	nop    
f0001d4d:	90                   	nop    
f0001d4e:	90                   	nop    
f0001d4f:	90                   	nop    

f0001d50 <MM_GetPTValue>:
f0001d50:	55                   	push   %ebp
f0001d51:	89 e5                	mov    %esp,%ebp
f0001d53:	53                   	push   %ebx
f0001d54:	83 ec 10             	sub    $0x10,%esp
f0001d57:	8b 5d 08             	mov    0x8(%ebp),%ebx
f0001d5a:	53                   	push   %ebx
f0001d5b:	e8 40 ff ff ff       	call   f0001ca0 <MM_GetPTAddress>
f0001d60:	29 c3                	sub    %eax,%ebx
f0001d62:	8b 0d 70 4a 00 f0    	mov    0xf0004a70,%ecx
f0001d68:	c1 eb 0c             	shr    $0xc,%ebx
f0001d6b:	c1 e8 0c             	shr    $0xc,%eax
f0001d6e:	01 d8                	add    %ebx,%eax
f0001d70:	8b 5d fc             	mov    0xfffffffc(%ebp),%ebx
f0001d73:	8b 04 81             	mov    (%ecx,%eax,4),%eax
f0001d76:	89 ec                	mov    %ebp,%esp
f0001d78:	5d                   	pop    %ebp
f0001d79:	c3                   	ret    
f0001d7a:	8d b6 00 00 00 00    	lea    0x0(%esi),%esi

f0001d80 <MM_Page_Map>:
f0001d80:	55                   	push   %ebp
f0001d81:	89 e5                	mov    %esp,%ebp
f0001d83:	57                   	push   %edi
f0001d84:	56                   	push   %esi
f0001d85:	53                   	push   %ebx
f0001d86:	83 ec 18             	sub    $0x18,%esp
f0001d89:	8a 4d 14             	mov    0x14(%ebp),%cl
f0001d8c:	8a 55 18             	mov    0x18(%ebp),%dl
f0001d8f:	8b 45 0c             	mov    0xc(%ebp),%eax
f0001d92:	8b 5d 08             	mov    0x8(%ebp),%ebx
f0001d95:	50                   	push   %eax
f0001d96:	88 4d f3             	mov    %cl,0xfffffff3(%ebp)
f0001d99:	88 55 f2             	mov    %dl,0xfffffff2(%ebp)
f0001d9c:	e8 ff fe ff ff       	call   f0001ca0 <MM_GetPTAddress>
f0001da1:	8b 75 0c             	mov    0xc(%ebp),%esi
f0001da4:	89 c7                	mov    %eax,%edi
f0001da6:	29 c6                	sub    %eax,%esi
f0001da8:	83 c4 10             	add    $0x10,%esp
f0001dab:	c1 ee 0c             	shr    $0xc,%esi
f0001dae:	c7 45 ec 01 00 00 00 	movl   $0x1,0xffffffec(%ebp)
f0001db5:	c1 ef 0c             	shr    $0xc,%edi
f0001db8:	80 7d f3 00          	cmpb   $0x0,0xfffffff3(%ebp)
f0001dbc:	74 07                	je     f0001dc5 <MM_Page_Map+0x45>
f0001dbe:	c7 45 ec 05 00 00 00 	movl   $0x5,0xffffffec(%ebp)
f0001dc5:	80 7d f2 00          	cmpb   $0x0,0xfffffff2(%ebp)
f0001dc9:	74 09                	je     f0001dd4 <MM_Page_Map+0x54>
f0001dcb:	8b 45 ec             	mov    0xffffffec(%ebp),%eax
f0001dce:	83 c8 02             	or     $0x2,%eax
f0001dd1:	89 45 ec             	mov    %eax,0xffffffec(%ebp)
f0001dd4:	c7 45 e8 00 00 00 00 	movl   $0x0,0xffffffe8(%ebp)
f0001ddb:	8b 55 10             	mov    0x10(%ebp),%edx
f0001dde:	39 55 e8             	cmp    %edx,0xffffffe8(%ebp)
f0001de1:	73 3a                	jae    f0001e1d <MM_Page_Map+0x9d>
f0001de3:	81 fe 00 04 00 00    	cmp    $0x400,%esi
f0001de9:	74 45                	je     f0001e30 <MM_Page_Map+0xb0>
f0001deb:	8d 0c 3e             	lea    (%esi,%edi,1),%ecx
f0001dee:	8b 55 ec             	mov    0xffffffec(%ebp),%edx
f0001df1:	a1 70 4a 00 f0       	mov    0xf0004a70,%eax
f0001df6:	09 da                	or     %ebx,%edx
f0001df8:	46                   	inc    %esi
f0001df9:	81 c3 00 10 00 00    	add    $0x1000,%ebx
f0001dff:	89 14 88             	mov    %edx,(%eax,%ecx,4)
f0001e02:	8b 55 e8             	mov    0xffffffe8(%ebp),%edx
f0001e05:	8b 4d 0c             	mov    0xc(%ebp),%ecx
f0001e08:	42                   	inc    %edx
f0001e09:	81 c1 00 10 00 00    	add    $0x1000,%ecx
f0001e0f:	89 55 e8             	mov    %edx,0xffffffe8(%ebp)
f0001e12:	89 4d 0c             	mov    %ecx,0xc(%ebp)
f0001e15:	8b 4d 10             	mov    0x10(%ebp),%ecx
f0001e18:	39 4d e8             	cmp    %ecx,0xffffffe8(%ebp)
f0001e1b:	72 c6                	jb     f0001de3 <MM_Page_Map+0x63>
f0001e1d:	0f 20 d8             	mov    %cr3,%eax
f0001e20:	0f 22 d8             	mov    %eax,%cr3
f0001e23:	8d 65 f4             	lea    0xfffffff4(%ebp),%esp
f0001e26:	5b                   	pop    %ebx
f0001e27:	5e                   	pop    %esi
f0001e28:	5f                   	pop    %edi
f0001e29:	5d                   	pop    %ebp
f0001e2a:	c3                   	ret    
f0001e2b:	90                   	nop    
f0001e2c:	8d 74 26 00          	lea    0x0(%esi),%esi
f0001e30:	83 ec 0c             	sub    $0xc,%esp
f0001e33:	8b 75 0c             	mov    0xc(%ebp),%esi
f0001e36:	56                   	push   %esi
f0001e37:	31 f6                	xor    %esi,%esi
f0001e39:	e8 62 fe ff ff       	call   f0001ca0 <MM_GetPTAddress>
f0001e3e:	83 c4 10             	add    $0x10,%esp
f0001e41:	89 c7                	mov    %eax,%edi
f0001e43:	c1 ef 0c             	shr    $0xc,%edi
f0001e46:	eb a3                	jmp    f0001deb <MM_Page_Map+0x6b>
f0001e48:	90                   	nop    
f0001e49:	8d b4 26 00 00 00 00 	lea    0x0(%esi),%esi

f0001e50 <MM_Page_MapZeroFill>:
f0001e50:	55                   	push   %ebp
f0001e51:	89 e5                	mov    %esp,%ebp
f0001e53:	57                   	push   %edi
f0001e54:	56                   	push   %esi
f0001e55:	53                   	push   %ebx
f0001e56:	83 ec 18             	sub    $0x18,%esp
f0001e59:	8b 7d 08             	mov    0x8(%ebp),%edi
f0001e5c:	8a 55 14             	mov    0x14(%ebp),%dl
f0001e5f:	8a 5d 10             	mov    0x10(%ebp),%bl
f0001e62:	88 55 f3             	mov    %dl,0xfffffff3(%ebp)
f0001e65:	57                   	push   %edi
f0001e66:	e8 35 fe ff ff       	call   f0001ca0 <MM_GetPTAddress>
f0001e6b:	89 f9                	mov    %edi,%ecx
f0001e6d:	83 c4 10             	add    $0x10,%esp
f0001e70:	89 45 e8             	mov    %eax,0xffffffe8(%ebp)
f0001e73:	29 c1                	sub    %eax,%ecx
f0001e75:	8b 55 e8             	mov    0xffffffe8(%ebp),%edx
f0001e78:	c7 45 ec 00 02 00 00 	movl   $0x200,0xffffffec(%ebp)
f0001e7f:	c1 ea 0c             	shr    $0xc,%edx
f0001e82:	c1 e9 0c             	shr    $0xc,%ecx
f0001e85:	89 55 e8             	mov    %edx,0xffffffe8(%ebp)
f0001e88:	84 db                	test   %bl,%bl
f0001e8a:	74 07                	je     f0001e93 <MM_Page_MapZeroFill+0x43>
f0001e8c:	c7 45 ec 04 02 00 00 	movl   $0x204,0xffffffec(%ebp)
f0001e93:	80 7d f3 00          	cmpb   $0x0,0xfffffff3(%ebp)
f0001e97:	74 09                	je     f0001ea2 <MM_Page_MapZeroFill+0x52>
f0001e99:	8b 5d ec             	mov    0xffffffec(%ebp),%ebx
f0001e9c:	83 cb 02             	or     $0x2,%ebx
f0001e9f:	89 5d ec             	mov    %ebx,0xffffffec(%ebp)
f0001ea2:	31 db                	xor    %ebx,%ebx
f0001ea4:	3b 5d 0c             	cmp    0xc(%ebp),%ebx
f0001ea7:	73 2c                	jae    f0001ed5 <MM_Page_MapZeroFill+0x85>
f0001ea9:	8d b4 26 00 00 00 00 	lea    0x0(%esi),%esi
f0001eb0:	81 f9 00 04 00 00    	cmp    $0x400,%ecx
f0001eb6:	74 2b                	je     f0001ee3 <MM_Page_MapZeroFill+0x93>
f0001eb8:	8b 55 e8             	mov    0xffffffe8(%ebp),%edx
f0001ebb:	a1 70 4a 00 f0       	mov    0xf0004a70,%eax
f0001ec0:	01 ca                	add    %ecx,%edx
f0001ec2:	8b 75 ec             	mov    0xffffffec(%ebp),%esi
f0001ec5:	43                   	inc    %ebx
f0001ec6:	41                   	inc    %ecx
f0001ec7:	89 34 90             	mov    %esi,(%eax,%edx,4)
f0001eca:	81 c7 00 10 00 00    	add    $0x1000,%edi
f0001ed0:	3b 5d 0c             	cmp    0xc(%ebp),%ebx
f0001ed3:	72 db                	jb     f0001eb0 <MM_Page_MapZeroFill+0x60>
f0001ed5:	0f 20 d8             	mov    %cr3,%eax
f0001ed8:	0f 22 d8             	mov    %eax,%cr3
f0001edb:	8d 65 f4             	lea    0xfffffff4(%ebp),%esp
f0001ede:	5b                   	pop    %ebx
f0001edf:	5e                   	pop    %esi
f0001ee0:	5f                   	pop    %edi
f0001ee1:	5d                   	pop    %ebp
f0001ee2:	c3                   	ret    
f0001ee3:	83 ec 0c             	sub    $0xc,%esp
f0001ee6:	57                   	push   %edi
f0001ee7:	e8 b4 fd ff ff       	call   f0001ca0 <MM_GetPTAddress>
f0001eec:	31 c9                	xor    %ecx,%ecx
f0001eee:	83 c4 10             	add    $0x10,%esp
f0001ef1:	89 45 e8             	mov    %eax,0xffffffe8(%ebp)
f0001ef4:	8b 45 e8             	mov    0xffffffe8(%ebp),%eax
f0001ef7:	c1 e8 0c             	shr    $0xc,%eax
f0001efa:	89 45 e8             	mov    %eax,0xffffffe8(%ebp)
f0001efd:	eb b9                	jmp    f0001eb8 <MM_Page_MapZeroFill+0x68>
f0001eff:	90                   	nop    

f0001f00 <MM_Page_Unmap>:
f0001f00:	55                   	push   %ebp
f0001f01:	89 e5                	mov    %esp,%ebp
f0001f03:	57                   	push   %edi
f0001f04:	56                   	push   %esi
f0001f05:	31 ff                	xor    %edi,%edi
f0001f07:	53                   	push   %ebx
f0001f08:	83 ec 18             	sub    $0x18,%esp
f0001f0b:	8b 75 08             	mov    0x8(%ebp),%esi
f0001f0e:	56                   	push   %esi
f0001f0f:	e8 8c fd ff ff       	call   f0001ca0 <MM_GetPTAddress>
f0001f14:	89 f1                	mov    %esi,%ecx
f0001f16:	89 c3                	mov    %eax,%ebx
f0001f18:	29 c1                	sub    %eax,%ecx
f0001f1a:	83 c4 10             	add    $0x10,%esp
f0001f1d:	c1 e9 0c             	shr    $0xc,%ecx
f0001f20:	c1 eb 0c             	shr    $0xc,%ebx
f0001f23:	3b 7d 0c             	cmp    0xc(%ebp),%edi
f0001f26:	73 24                	jae    f0001f4c <MM_Page_Unmap+0x4c>
f0001f28:	81 f9 00 04 00 00    	cmp    $0x400,%ecx
f0001f2e:	74 30                	je     f0001f60 <MM_Page_Unmap+0x60>
f0001f30:	8d 14 19             	lea    (%ecx,%ebx,1),%edx
f0001f33:	a1 70 4a 00 f0       	mov    0xf0004a70,%eax
f0001f38:	47                   	inc    %edi
f0001f39:	41                   	inc    %ecx
f0001f3a:	c7 04 90 00 00 00 00 	movl   $0x0,(%eax,%edx,4)
f0001f41:	81 c6 00 10 00 00    	add    $0x1000,%esi
f0001f47:	3b 7d 0c             	cmp    0xc(%ebp),%edi
f0001f4a:	72 dc                	jb     f0001f28 <MM_Page_Unmap+0x28>
f0001f4c:	0f 20 d8             	mov    %cr3,%eax
f0001f4f:	0f 22 d8             	mov    %eax,%cr3
f0001f52:	8d 65 f4             	lea    0xfffffff4(%ebp),%esp
f0001f55:	5b                   	pop    %ebx
f0001f56:	5e                   	pop    %esi
f0001f57:	5f                   	pop    %edi
f0001f58:	5d                   	pop    %ebp
f0001f59:	c3                   	ret    
f0001f5a:	8d b6 00 00 00 00    	lea    0x0(%esi),%esi
f0001f60:	83 ec 0c             	sub    $0xc,%esp
f0001f63:	56                   	push   %esi
f0001f64:	e8 37 fd ff ff       	call   f0001ca0 <MM_GetPTAddress>
f0001f69:	89 c3                	mov    %eax,%ebx
f0001f6b:	31 c9                	xor    %ecx,%ecx
f0001f6d:	c1 eb 0c             	shr    $0xc,%ebx
f0001f70:	83 c4 10             	add    $0x10,%esp
f0001f73:	eb bb                	jmp    f0001f30 <MM_Page_Unmap+0x30>
f0001f75:	8d 74 26 00          	lea    0x0(%esi),%esi
f0001f79:	8d bc 27 00 00 00 00 	lea    0x0(%edi),%edi

f0001f80 <MM_Page_Allocate>:
f0001f80:	55                   	push   %ebp
f0001f81:	89 e5                	mov    %esp,%ebp
f0001f83:	57                   	push   %edi
f0001f84:	56                   	push   %esi
f0001f85:	53                   	push   %ebx
f0001f86:	83 ec 18             	sub    $0x18,%esp
f0001f89:	8b 5d 08             	mov    0x8(%ebp),%ebx
f0001f8c:	8a 55 0c             	mov    0xc(%ebp),%dl
f0001f8f:	88 55 ef             	mov    %dl,0xffffffef(%ebp)
f0001f92:	53                   	push   %ebx
f0001f93:	e8 08 fd ff ff       	call   f0001ca0 <MM_GetPTAddress>
f0001f98:	8b 15 80 4a 00 f0    	mov    0xf0004a80,%edx
f0001f9e:	89 d9                	mov    %ebx,%ecx
f0001fa0:	83 c4 10             	add    $0x10,%esp
f0001fa3:	29 c1                	sub    %eax,%ecx
f0001fa5:	8b 35 70 4a 00 f0    	mov    0xf0004a70,%esi
f0001fab:	c1 e9 0c             	shr    $0xc,%ecx
f0001fae:	c1 e8 0c             	shr    $0xc,%eax
f0001fb1:	83 fa ff             	cmp    $0xffffffff,%edx
f0001fb4:	8d 3c 01             	lea    (%ecx,%eax,1),%edi
f0001fb7:	74 3d                	je     f0001ff6 <MM_Page_Allocate+0x76>
f0001fb9:	a1 7c 4a 00 f0       	mov    0xf0004a7c,%eax
f0001fbe:	8d 4a ff             	lea    0xffffffff(%edx),%ecx
f0001fc1:	89 0d 80 4a 00 f0    	mov    %ecx,0xf0004a80
f0001fc7:	8b 0c 90             	mov    (%eax,%edx,4),%ecx
f0001fca:	83 c9 03             	or     $0x3,%ecx
f0001fcd:	89 0c be             	mov    %ecx,(%esi,%edi,4)
f0001fd0:	80 7d ef 00          	cmpb   $0x0,0xffffffef(%ebp)
f0001fd4:	74 11                	je     f0001fe7 <MM_Page_Allocate+0x67>
f0001fd6:	31 c0                	xor    %eax,%eax
f0001fd8:	be 00 04 00 00       	mov    $0x400,%esi
f0001fdd:	89 d9                	mov    %ebx,%ecx
f0001fdf:	89 01                	mov    %eax,(%ecx)
f0001fe1:	83 c1 04             	add    $0x4,%ecx
f0001fe4:	4e                   	dec    %esi
f0001fe5:	75 f8                	jne    f0001fdf <MM_Page_Allocate+0x5f>
f0001fe7:	89 5d f0             	mov    %ebx,0xfffffff0(%ebp)
f0001fea:	0f 01 7d f0          	invlpg 0xfffffff0(%ebp)
f0001fee:	8d 65 f4             	lea    0xfffffff4(%ebp),%esp
f0001ff1:	5b                   	pop    %ebx
f0001ff2:	5e                   	pop    %esi
f0001ff3:	5f                   	pop    %edi
f0001ff4:	5d                   	pop    %ebp
f0001ff5:	c3                   	ret    
f0001ff6:	e8 b5 f2 ff ff       	call   f00012b0 <Syslog_Lock>
f0001ffb:	50                   	push   %eax
f0001ffc:	50                   	push   %eax
f0001ffd:	68 24 42 00 f0       	push   $0xf0004224
f0002002:	68 e7 3f 00 f0       	push   $0xf0003fe7
f0002007:	e8 a4 f1 ff ff       	call   f00011b0 <Syslog_Entry>
f000200c:	83 c4 10             	add    $0x10,%esp
f000200f:	e8 cc f2 ff ff       	call   f00012e0 <Syslog_Unlock>
f0002014:	e8 66 e9 ff ff       	call   f000097f <halt>
f0002019:	8b 15 80 4a 00 f0    	mov    0xf0004a80,%edx
f000201f:	eb 98                	jmp    f0001fb9 <MM_Page_Allocate+0x39>
	...

f0002030 <MM_Alloc>:
f0002030:	55                   	push   %ebp
f0002031:	89 e5                	mov    %esp,%ebp
f0002033:	57                   	push   %edi
f0002034:	56                   	push   %esi
f0002035:	31 f6                	xor    %esi,%esi
f0002037:	53                   	push   %ebx
f0002038:	83 ec 0c             	sub    $0xc,%esp
f000203b:	8b 7d 0c             	mov    0xc(%ebp),%edi
f000203e:	8b 5d 08             	mov    0x8(%ebp),%ebx
f0002041:	83 c3 0b             	add    $0xb,%ebx
f0002044:	8b 57 0c             	mov    0xc(%edi),%edx
f0002047:	83 e3 fc             	and    $0xfffffffc,%ebx
f000204a:	89 55 f0             	mov    %edx,0xfffffff0(%ebp)
f000204d:	85 d2                	test   %edx,%edx
f000204f:	74 0f                	je     f0002060 <MM_Alloc+0x30>
f0002051:	8b 02                	mov    (%edx),%eax
f0002053:	39 d8                	cmp    %ebx,%eax
f0002055:	73 36                	jae    f000208d <MM_Alloc+0x5d>
f0002057:	89 d6                	mov    %edx,%esi
f0002059:	8b 52 04             	mov    0x4(%edx),%edx
f000205c:	85 d2                	test   %edx,%edx
f000205e:	75 f1                	jne    f0002051 <MM_Alloc+0x21>
f0002060:	e8 4b f2 ff ff       	call   f00012b0 <Syslog_Lock>
f0002065:	8b 55 08             	mov    0x8(%ebp),%edx
f0002068:	53                   	push   %ebx
f0002069:	52                   	push   %edx
f000206a:	68 4c 42 00 f0       	push   $0xf000424c
f000206f:	68 e7 3f 00 f0       	push   $0xf0003fe7
f0002074:	e8 37 f1 ff ff       	call   f00011b0 <Syslog_Entry>
f0002079:	e8 62 f2 ff ff       	call   f00012e0 <Syslog_Unlock>
f000207e:	e8 fc e8 ff ff       	call   f000097f <halt>
f0002083:	31 c0                	xor    %eax,%eax
f0002085:	8d 65 f4             	lea    0xfffffff4(%ebp),%esp
f0002088:	5b                   	pop    %ebx
f0002089:	5e                   	pop    %esi
f000208a:	5f                   	pop    %edi
f000208b:	5d                   	pop    %ebp
f000208c:	c3                   	ret    
f000208d:	8d 0c 13             	lea    (%ebx,%edx,1),%ecx
f0002090:	29 d8                	sub    %ebx,%eax
f0002092:	39 55 f0             	cmp    %edx,0xfffffff0(%ebp)
f0002095:	89 01                	mov    %eax,(%ecx)
f0002097:	74 19                	je     f00020b2 <MM_Alloc+0x82>
f0002099:	89 4e 04             	mov    %ecx,0x4(%esi)
f000209c:	8b 72 04             	mov    0x4(%edx),%esi
f000209f:	8d 42 08             	lea    0x8(%edx),%eax
f00020a2:	89 71 04             	mov    %esi,0x4(%ecx)
f00020a5:	89 1a                	mov    %ebx,(%edx)
f00020a7:	8b 4f 08             	mov    0x8(%edi),%ecx
f00020aa:	89 4a 04             	mov    %ecx,0x4(%edx)
f00020ad:	89 57 08             	mov    %edx,0x8(%edi)
f00020b0:	eb d3                	jmp    f0002085 <MM_Alloc+0x55>
f00020b2:	89 4f 0c             	mov    %ecx,0xc(%edi)
f00020b5:	eb e5                	jmp    f000209c <MM_Alloc+0x6c>
f00020b7:	89 f6                	mov    %esi,%esi
f00020b9:	8d bc 27 00 00 00 00 	lea    0x0(%edi),%edi

f00020c0 <MM_Free>:
f00020c0:	55                   	push   %ebp
f00020c1:	89 e5                	mov    %esp,%ebp
f00020c3:	57                   	push   %edi
f00020c4:	56                   	push   %esi
f00020c5:	53                   	push   %ebx
f00020c6:	83 ec 0c             	sub    $0xc,%esp
f00020c9:	31 db                	xor    %ebx,%ebx
f00020cb:	8b 75 08             	mov    0x8(%ebp),%esi
f00020ce:	8b 7d 0c             	mov    0xc(%ebp),%edi
f00020d1:	8d 4e f8             	lea    0xfffffff8(%esi),%ecx
f00020d4:	8b 57 08             	mov    0x8(%edi),%edx
f00020d7:	39 ca                	cmp    %ecx,%edx
f00020d9:	74 14                	je     f00020ef <MM_Free+0x2f>
f00020db:	90                   	nop    
f00020dc:	8d 74 26 00          	lea    0x0(%esi),%esi
f00020e0:	8b 42 04             	mov    0x4(%edx),%eax
f00020e3:	85 c0                	test   %eax,%eax
f00020e5:	74 0f                	je     f00020f6 <MM_Free+0x36>
f00020e7:	89 d3                	mov    %edx,%ebx
f00020e9:	39 c8                	cmp    %ecx,%eax
f00020eb:	89 c2                	mov    %eax,%edx
f00020ed:	75 f1                	jne    f00020e0 <MM_Free+0x20>
f00020ef:	8b 42 04             	mov    0x4(%edx),%eax
f00020f2:	85 c0                	test   %eax,%eax
f00020f4:	75 2a                	jne    f0002120 <MM_Free+0x60>
f00020f6:	e8 b5 f1 ff ff       	call   f00012b0 <Syslog_Lock>
f00020fb:	52                   	push   %edx
f00020fc:	56                   	push   %esi
f00020fd:	68 88 42 00 f0       	push   $0xf0004288
f0002102:	68 e7 3f 00 f0       	push   $0xf0003fe7
f0002107:	e8 a4 f0 ff ff       	call   f00011b0 <Syslog_Entry>
f000210c:	e8 cf f1 ff ff       	call   f00012e0 <Syslog_Unlock>
f0002111:	83 c4 10             	add    $0x10,%esp
f0002114:	8d 65 f4             	lea    0xfffffff4(%ebp),%esp
f0002117:	5b                   	pop    %ebx
f0002118:	5e                   	pop    %esi
f0002119:	5f                   	pop    %edi
f000211a:	5d                   	pop    %ebp
f000211b:	e9 5f e8 ff ff       	jmp    f000097f <halt>
f0002120:	85 db                	test   %ebx,%ebx
f0002122:	74 3d                	je     f0002161 <MM_Free+0xa1>
f0002124:	89 43 04             	mov    %eax,0x4(%ebx)
f0002127:	8b 47 0c             	mov    0xc(%edi),%eax
f000212a:	31 c9                	xor    %ecx,%ecx
f000212c:	39 d0                	cmp    %edx,%eax
f000212e:	76 09                	jbe    f0002139 <MM_Free+0x79>
f0002130:	89 c1                	mov    %eax,%ecx
f0002132:	8b 40 04             	mov    0x4(%eax),%eax
f0002135:	39 d0                	cmp    %edx,%eax
f0002137:	77 f7                	ja     f0002130 <MM_Free+0x70>
f0002139:	85 c0                	test   %eax,%eax
f000213b:	74 1b                	je     f0002158 <MM_Free+0x98>
f000213d:	8b 59 04             	mov    0x4(%ecx),%ebx
f0002140:	89 5a 04             	mov    %ebx,0x4(%edx)
f0002143:	89 51 04             	mov    %edx,0x4(%ecx)
f0002146:	89 7d 08             	mov    %edi,0x8(%ebp)
f0002149:	89 4d 0c             	mov    %ecx,0xc(%ebp)
f000214c:	8d 65 f4             	lea    0xfffffff4(%ebp),%esp
f000214f:	5b                   	pop    %ebx
f0002150:	5e                   	pop    %esi
f0002151:	5f                   	pop    %edi
f0002152:	5d                   	pop    %ebp
f0002153:	e9 18 00 00 00       	jmp    f0002170 <MM_Coalesce>
f0002158:	c7 42 04 00 00 00 00 	movl   $0x0,0x4(%edx)
f000215f:	eb e2                	jmp    f0002143 <MM_Free+0x83>
f0002161:	89 47 08             	mov    %eax,0x8(%edi)
f0002164:	eb c1                	jmp    f0002127 <MM_Free+0x67>
f0002166:	8d 76 00             	lea    0x0(%esi),%esi
f0002169:	8d bc 27 00 00 00 00 	lea    0x0(%edi),%edi

f0002170 <MM_Coalesce>:
f0002170:	55                   	push   %ebp
f0002171:	89 e5                	mov    %esp,%ebp
f0002173:	57                   	push   %edi
f0002174:	56                   	push   %esi
f0002175:	53                   	push   %ebx
f0002176:	8b 5d 0c             	mov    0xc(%ebp),%ebx
f0002179:	8b 7d 08             	mov    0x8(%ebp),%edi
f000217c:	85 db                	test   %ebx,%ebx
f000217e:	74 4e                	je     f00021ce <MM_Coalesce+0x5e>
f0002180:	8b 4b 04             	mov    0x4(%ebx),%ecx
f0002183:	31 f6                	xor    %esi,%esi
f0002185:	85 c9                	test   %ecx,%ecx
f0002187:	74 1c                	je     f00021a5 <MM_Coalesce+0x35>
f0002189:	8d b4 26 00 00 00 00 	lea    0x0(%esi),%esi
f0002190:	8b 11                	mov    (%ecx),%edx
f0002192:	8d 04 0a             	lea    (%edx,%ecx,1),%eax
f0002195:	39 c3                	cmp    %eax,%ebx
f0002197:	74 17                	je     f00021b0 <MM_Coalesce+0x40>
f0002199:	89 de                	mov    %ebx,%esi
f000219b:	8b 5b 04             	mov    0x4(%ebx),%ebx
f000219e:	8b 4b 04             	mov    0x4(%ebx),%ecx
f00021a1:	85 c9                	test   %ecx,%ecx
f00021a3:	75 eb                	jne    f0002190 <MM_Coalesce+0x20>
f00021a5:	5b                   	pop    %ebx
f00021a6:	5e                   	pop    %esi
f00021a7:	5f                   	pop    %edi
f00021a8:	5d                   	pop    %ebp
f00021a9:	c3                   	ret    
f00021aa:	8d b6 00 00 00 00    	lea    0x0(%esi),%esi
f00021b0:	8b 03                	mov    (%ebx),%eax
f00021b2:	01 c2                	add    %eax,%edx
f00021b4:	3b 5f 0c             	cmp    0xc(%edi),%ebx
f00021b7:	89 11                	mov    %edx,(%ecx)
f00021b9:	74 0e                	je     f00021c9 <MM_Coalesce+0x59>
f00021bb:	85 f6                	test   %esi,%esi
f00021bd:	74 03                	je     f00021c2 <MM_Coalesce+0x52>
f00021bf:	89 4e 04             	mov    %ecx,0x4(%esi)
f00021c2:	89 cb                	mov    %ecx,%ebx
f00021c4:	8b 49 04             	mov    0x4(%ecx),%ecx
f00021c7:	eb d8                	jmp    f00021a1 <MM_Coalesce+0x31>
f00021c9:	89 4f 0c             	mov    %ecx,0xc(%edi)
f00021cc:	eb ed                	jmp    f00021bb <MM_Coalesce+0x4b>
f00021ce:	8b 5f 0c             	mov    0xc(%edi),%ebx
f00021d1:	eb ad                	jmp    f0002180 <MM_Coalesce+0x10>
f00021d3:	8d b6 00 00 00 00    	lea    0x0(%esi),%esi
f00021d9:	8d bc 27 00 00 00 00 	lea    0x0(%edi),%edi

f00021e0 <MM_KAlloc>:
f00021e0:	55                   	push   %ebp
f00021e1:	89 e5                	mov    %esp,%ebp
f00021e3:	83 ec 10             	sub    $0x10,%esp
f00021e6:	8b 55 08             	mov    0x8(%ebp),%edx
f00021e9:	68 90 4a 00 f0       	push   $0xf0004a90
f00021ee:	52                   	push   %edx
f00021ef:	e8 3c fe ff ff       	call   f0002030 <MM_Alloc>
f00021f4:	89 ec                	mov    %ebp,%esp
f00021f6:	5d                   	pop    %ebp
f00021f7:	c3                   	ret    
f00021f8:	90                   	nop    
f00021f9:	8d b4 26 00 00 00 00 	lea    0x0(%esi),%esi

f0002200 <MM_KFree>:
f0002200:	55                   	push   %ebp
f0002201:	89 e5                	mov    %esp,%ebp
f0002203:	83 ec 10             	sub    $0x10,%esp
f0002206:	8b 55 08             	mov    0x8(%ebp),%edx
f0002209:	68 90 4a 00 f0       	push   $0xf0004a90
f000220e:	52                   	push   %edx
f000220f:	e8 ac fe ff ff       	call   f00020c0 <MM_Free>
f0002214:	89 ec                	mov    %ebp,%esp
f0002216:	5d                   	pop    %ebp
f0002217:	c3                   	ret    
f0002218:	90                   	nop    
f0002219:	8d b4 26 00 00 00 00 	lea    0x0(%esi),%esi

f0002220 <MM_KExpand>:
f0002220:	55                   	push   %ebp
f0002221:	89 e5                	mov    %esp,%ebp
f0002223:	57                   	push   %edi
f0002224:	56                   	push   %esi
f0002225:	53                   	push   %ebx
f0002226:	83 ec 0c             	sub    $0xc,%esp
f0002229:	8b 55 08             	mov    0x8(%ebp),%edx
f000222c:	8b 1d 98 4a 00 f0    	mov    0xf0004a98,%ebx
f0002232:	83 ea 08             	sub    $0x8,%edx
f0002235:	8b 4d 0c             	mov    0xc(%ebp),%ecx
f0002238:	39 d3                	cmp    %edx,%ebx
f000223a:	74 11                	je     f000224d <MM_KExpand+0x2d>
f000223c:	8d 74 26 00          	lea    0x0(%esi),%esi
f0002240:	8b 43 04             	mov    0x4(%ebx),%eax
f0002243:	85 c0                	test   %eax,%eax
f0002245:	74 0d                	je     f0002254 <MM_KExpand+0x34>
f0002247:	89 c3                	mov    %eax,%ebx
f0002249:	39 d0                	cmp    %edx,%eax
f000224b:	75 f3                	jne    f0002240 <MM_KExpand+0x20>
f000224d:	8b 53 04             	mov    0x4(%ebx),%edx
f0002250:	85 d2                	test   %edx,%edx
f0002252:	75 30                	jne    f0002284 <MM_KExpand+0x64>
f0002254:	e8 57 f0 ff ff       	call   f00012b0 <Syslog_Lock>
f0002259:	8b 55 08             	mov    0x8(%ebp),%edx
f000225c:	50                   	push   %eax
f000225d:	52                   	push   %edx
f000225e:	68 88 42 00 f0       	push   $0xf0004288
f0002263:	68 e7 3f 00 f0       	push   $0xf0003fe7
f0002268:	e8 43 ef ff ff       	call   f00011b0 <Syslog_Entry>
f000226d:	83 c4 10             	add    $0x10,%esp
f0002270:	e8 6b f0 ff ff       	call   f00012e0 <Syslog_Unlock>
f0002275:	e8 05 e7 ff ff       	call   f000097f <halt>
f000227a:	31 c0                	xor    %eax,%eax
f000227c:	8d 65 f4             	lea    0xfffffff4(%ebp),%esp
f000227f:	5b                   	pop    %ebx
f0002280:	5e                   	pop    %esi
f0002281:	5f                   	pop    %edi
f0002282:	5d                   	pop    %ebp
f0002283:	c3                   	ret    
f0002284:	8b 33                	mov    (%ebx),%esi
f0002286:	01 f1                	add    %esi,%ecx
f0002288:	57                   	push   %edi
f0002289:	57                   	push   %edi
f000228a:	8d 73 08             	lea    0x8(%ebx),%esi
f000228d:	68 90 4a 00 f0       	push   $0xf0004a90
f0002292:	51                   	push   %ecx
f0002293:	e8 98 fd ff ff       	call   f0002030 <MM_Alloc>
f0002298:	5a                   	pop    %edx
f0002299:	89 c7                	mov    %eax,%edi
f000229b:	59                   	pop    %ecx
f000229c:	89 45 f0             	mov    %eax,0xfffffff0(%ebp)
f000229f:	8b 0b                	mov    (%ebx),%ecx
f00022a1:	d1 e9                	shr    %ecx
f00022a3:	73 01                	jae    f00022a6 <MM_KExpand+0x86>
f00022a5:	a4                   	movsb  %ds:(%esi),%es:(%edi)
f00022a6:	d1 e9                	shr    %ecx
f00022a8:	73 02                	jae    f00022ac <MM_KExpand+0x8c>
f00022aa:	66 a5                	movsw  %ds:(%esi),%es:(%edi)
f00022ac:	f3 a5                	repz movsl %ds:(%esi),%es:(%edi)
f00022ae:	8b 4d 08             	mov    0x8(%ebp),%ecx
f00022b1:	68 90 4a 00 f0       	push   $0xf0004a90
f00022b6:	51                   	push   %ecx
f00022b7:	e8 04 fe ff ff       	call   f00020c0 <MM_Free>
f00022bc:	8b 45 f0             	mov    0xfffffff0(%ebp),%eax
f00022bf:	83 c4 10             	add    $0x10,%esp
f00022c2:	eb b8                	jmp    f000227c <MM_KExpand+0x5c>
f00022c4:	8d b6 00 00 00 00    	lea    0x0(%esi),%esi
f00022ca:	8d bf 00 00 00 00    	lea    0x0(%edi),%edi

f00022d0 <MM_AllocInit>:
f00022d0:	55                   	push   %ebp
f00022d1:	89 e5                	mov    %esp,%ebp
f00022d3:	53                   	push   %ebx
f00022d4:	8b 45 0c             	mov    0xc(%ebp),%eax
f00022d7:	8b 4d 08             	mov    0x8(%ebp),%ecx
f00022da:	8b 55 10             	mov    0x10(%ebp),%edx
f00022dd:	89 51 04             	mov    %edx,0x4(%ecx)
f00022e0:	8d 58 08             	lea    0x8(%eax),%ebx
f00022e3:	c1 e2 0c             	shl    $0xc,%edx
f00022e6:	89 41 08             	mov    %eax,0x8(%ecx)
f00022e9:	83 ea 10             	sub    $0x10,%edx
f00022ec:	89 59 0c             	mov    %ebx,0xc(%ecx)
f00022ef:	89 01                	mov    %eax,(%ecx)
f00022f1:	c7 00 00 00 00 00    	movl   $0x0,(%eax)
f00022f7:	c7 40 04 00 00 00 00 	movl   $0x0,0x4(%eax)
f00022fe:	89 50 08             	mov    %edx,0x8(%eax)
f0002301:	c7 43 04 00 00 00 00 	movl   $0x0,0x4(%ebx)
f0002308:	5b                   	pop    %ebx
f0002309:	5d                   	pop    %ebp
f000230a:	c3                   	ret    
f000230b:	90                   	nop    
f000230c:	8d 74 26 00          	lea    0x0(%esi),%esi

f0002310 <MM_Expand>:
f0002310:	55                   	push   %ebp
f0002311:	89 e5                	mov    %esp,%ebp
f0002313:	57                   	push   %edi
f0002314:	56                   	push   %esi
f0002315:	53                   	push   %ebx
f0002316:	83 ec 0c             	sub    $0xc,%esp
f0002319:	8b 75 10             	mov    0x10(%ebp),%esi
f000231c:	8b 55 08             	mov    0x8(%ebp),%edx
f000231f:	83 ea 08             	sub    $0x8,%edx
f0002322:	8b 4d 0c             	mov    0xc(%ebp),%ecx
f0002325:	8b 5e 08             	mov    0x8(%esi),%ebx
f0002328:	39 d3                	cmp    %edx,%ebx
f000232a:	74 11                	je     f000233d <MM_Expand+0x2d>
f000232c:	8d 74 26 00          	lea    0x0(%esi),%esi
f0002330:	8b 43 04             	mov    0x4(%ebx),%eax
f0002333:	85 c0                	test   %eax,%eax
f0002335:	74 4e                	je     f0002385 <MM_Expand+0x75>
f0002337:	89 c3                	mov    %eax,%ebx
f0002339:	39 d0                	cmp    %edx,%eax
f000233b:	75 f3                	jne    f0002330 <MM_Expand+0x20>
f000233d:	8b 53 04             	mov    0x4(%ebx),%edx
f0002340:	85 d2                	test   %edx,%edx
f0002342:	74 41                	je     f0002385 <MM_Expand+0x75>
f0002344:	8b 3b                	mov    (%ebx),%edi
f0002346:	01 f9                	add    %edi,%ecx
f0002348:	50                   	push   %eax
f0002349:	50                   	push   %eax
f000234a:	8d 73 08             	lea    0x8(%ebx),%esi
f000234d:	8b 45 10             	mov    0x10(%ebp),%eax
f0002350:	50                   	push   %eax
f0002351:	51                   	push   %ecx
f0002352:	e8 d9 fc ff ff       	call   f0002030 <MM_Alloc>
f0002357:	5a                   	pop    %edx
f0002358:	89 c7                	mov    %eax,%edi
f000235a:	59                   	pop    %ecx
f000235b:	89 45 f0             	mov    %eax,0xfffffff0(%ebp)
f000235e:	8b 0b                	mov    (%ebx),%ecx
f0002360:	d1 e9                	shr    %ecx
f0002362:	73 01                	jae    f0002365 <MM_Expand+0x55>
f0002364:	a4                   	movsb  %ds:(%esi),%es:(%edi)
f0002365:	d1 e9                	shr    %ecx
f0002367:	73 02                	jae    f000236b <MM_Expand+0x5b>
f0002369:	66 a5                	movsw  %ds:(%esi),%es:(%edi)
f000236b:	f3 a5                	repz movsl %ds:(%esi),%es:(%edi)
f000236d:	8b 5d 08             	mov    0x8(%ebp),%ebx
f0002370:	8b 75 10             	mov    0x10(%ebp),%esi
f0002373:	56                   	push   %esi
f0002374:	53                   	push   %ebx
f0002375:	e8 46 fd ff ff       	call   f00020c0 <MM_Free>
f000237a:	8b 45 f0             	mov    0xfffffff0(%ebp),%eax
f000237d:	8d 65 f4             	lea    0xfffffff4(%ebp),%esp
f0002380:	5b                   	pop    %ebx
f0002381:	5e                   	pop    %esi
f0002382:	5f                   	pop    %edi
f0002383:	5d                   	pop    %ebp
f0002384:	c3                   	ret    
f0002385:	e8 26 ef ff ff       	call   f00012b0 <Syslog_Lock>
f000238a:	8b 4d 08             	mov    0x8(%ebp),%ecx
f000238d:	50                   	push   %eax
f000238e:	51                   	push   %ecx
f000238f:	68 88 42 00 f0       	push   $0xf0004288
f0002394:	68 e7 3f 00 f0       	push   $0xf0003fe7
f0002399:	e8 12 ee ff ff       	call   f00011b0 <Syslog_Entry>
f000239e:	e8 3d ef ff ff       	call   f00012e0 <Syslog_Unlock>
f00023a3:	e8 d7 e5 ff ff       	call   f000097f <halt>
f00023a8:	31 c0                	xor    %eax,%eax
f00023aa:	eb d1                	jmp    f000237d <MM_Expand+0x6d>
f00023ac:	00 00                	add    %al,(%eax)
	...

f00023b0 <MM_ZeroPageStruct>:
f00023b0:	55                   	push   %ebp
f00023b1:	b8 20 00 00 00       	mov    $0x20,%eax
f00023b6:	89 e5                	mov    %esp,%ebp
f00023b8:	31 d2                	xor    %edx,%edx
f00023ba:	56                   	push   %esi
f00023bb:	89 c6                	mov    %eax,%esi
f00023bd:	8b 4d 08             	mov    0x8(%ebp),%ecx
f00023c0:	53                   	push   %ebx
f00023c1:	c7 01 00 00 00 00    	movl   $0x0,(%ecx)
f00023c7:	8d 59 04             	lea    0x4(%ecx),%ebx
f00023ca:	89 13                	mov    %edx,(%ebx)
f00023cc:	83 c3 04             	add    $0x4,%ebx
f00023cf:	4e                   	dec    %esi
f00023d0:	75 f8                	jne    f00023ca <MM_ZeroPageStruct+0x1a>
f00023d2:	81 c1 84 00 00 00    	add    $0x84,%ecx
f00023d8:	89 11                	mov    %edx,(%ecx)
f00023da:	83 c1 04             	add    $0x4,%ecx
f00023dd:	48                   	dec    %eax
f00023de:	75 f8                	jne    f00023d8 <MM_ZeroPageStruct+0x28>
f00023e0:	5b                   	pop    %ebx
f00023e1:	5e                   	pop    %esi
f00023e2:	5d                   	pop    %ebp
f00023e3:	c3                   	ret    
	...

f00023f0 <Timer_LockInit>:
f00023f0:	55                   	push   %ebp
f00023f1:	c7 05 e8 54 00 f0 00 	movl   $0x0,0xf00054e8
f00023f8:	00 00 00 
f00023fb:	89 e5                	mov    %esp,%ebp
f00023fd:	5d                   	pop    %ebp
f00023fe:	c3                   	ret    
f00023ff:	90                   	nop    

f0002400 <Timer_Lock>:
f0002400:	55                   	push   %ebp
f0002401:	89 e5                	mov    %esp,%ebp
f0002403:	80 3d 01 4a 00 f0 01 	cmpb   $0x1,0xf0004a01
f000240a:	74 04                	je     f0002410 <Timer_Lock+0x10>
f000240c:	5d                   	pop    %ebp
f000240d:	c3                   	ret    
f000240e:	89 f6                	mov    %esi,%esi
f0002410:	ba 01 00 00 00       	mov    $0x1,%edx
f0002415:	89 d1                	mov    %edx,%ecx
f0002417:	87 0d e8 54 00 f0    	xchg   %ecx,0xf00054e8
f000241d:	85 c9                	test   %ecx,%ecx
f000241f:	75 f4                	jne    f0002415 <Timer_Lock+0x15>
f0002421:	eb e9                	jmp    f000240c <Timer_Lock+0xc>
f0002423:	8d b6 00 00 00 00    	lea    0x0(%esi),%esi
f0002429:	8d bc 27 00 00 00 00 	lea    0x0(%edi),%edi

f0002430 <Timer_Unlock>:
f0002430:	55                   	push   %ebp
f0002431:	89 e5                	mov    %esp,%ebp
f0002433:	80 3d 01 4a 00 f0 01 	cmpb   $0x1,0xf0004a01
f000243a:	74 04                	je     f0002440 <Timer_Unlock+0x10>
f000243c:	5d                   	pop    %ebp
f000243d:	c3                   	ret    
f000243e:	89 f6                	mov    %esi,%esi
f0002440:	c7 05 e8 54 00 f0 00 	movl   $0x0,0xf00054e8
f0002447:	00 00 00 
f000244a:	eb f0                	jmp    f000243c <Timer_Unlock+0xc>
f000244c:	8d 74 26 00          	lea    0x0(%esi),%esi

f0002450 <Timer_Init>:
f0002450:	55                   	push   %ebp
f0002451:	89 e5                	mov    %esp,%ebp
f0002453:	83 ec 10             	sub    $0x10,%esp
f0002456:	c7 05 e8 54 00 f0 00 	movl   $0x0,0xf00054e8
f000245d:	00 00 00 
f0002460:	c7 05 94 4b 00 f0 00 	movl   $0x0,0xf0004b94
f0002467:	00 00 00 
f000246a:	68 20 25 00 f0       	push   $0xf0002520
f000246f:	c7 05 98 4b 00 f0 00 	movl   $0x0,0xf0004b98
f0002476:	00 00 00 
f0002479:	6a 00                	push   $0x0
f000247b:	c7 05 9c 4b 00 f0 00 	movl   $0x0,0xf0004b9c
f0002482:	00 00 00 
f0002485:	e8 26 f1 ff ff       	call   f00015b0 <Interrupt_AttachHandler>
f000248a:	c7 04 24 00 00 00 00 	movl   $0x0,(%esp)
f0002491:	e8 7a f1 ff ff       	call   f0001610 <Interrupt_EnableIRQ>
f0002496:	89 ec                	mov    %ebp,%esp
f0002498:	5d                   	pop    %ebp
f0002499:	c3                   	ret    
f000249a:	8d b6 00 00 00 00    	lea    0x0(%esi),%esi

f00024a0 <Timer_AttachTimerHandler>:
f00024a0:	55                   	push   %ebp
f00024a1:	89 e5                	mov    %esp,%ebp
f00024a3:	53                   	push   %ebx
f00024a4:	50                   	push   %eax
f00024a5:	8b 5d 08             	mov    0x8(%ebp),%ebx
f00024a8:	80 3d 01 4a 00 f0 01 	cmpb   $0x1,0xf0004a01
f00024af:	74 4f                	je     f0002500 <Timer_AttachTimerHandler+0x60>
f00024b1:	83 ec 0c             	sub    $0xc,%esp
f00024b4:	6a 10                	push   $0x10
f00024b6:	e8 25 fd ff ff       	call   f00021e0 <MM_KAlloc>
f00024bb:	83 c4 10             	add    $0x10,%esp
f00024be:	89 18                	mov    %ebx,(%eax)
f00024c0:	89 58 04             	mov    %ebx,0x4(%eax)
f00024c3:	8b 5d 0c             	mov    0xc(%ebp),%ebx
f00024c6:	89 58 08             	mov    %ebx,0x8(%eax)
f00024c9:	8b 1d 94 4b 00 f0    	mov    0xf0004b94,%ebx
f00024cf:	85 db                	test   %ebx,%ebx
f00024d1:	0f 94 c1             	sete   %cl
f00024d4:	81 e1 ff 00 00 00    	and    $0xff,%ecx
f00024da:	49                   	dec    %ecx
f00024db:	21 cb                	and    %ecx,%ebx
f00024dd:	89 58 0c             	mov    %ebx,0xc(%eax)
f00024e0:	a3 94 4b 00 f0       	mov    %eax,0xf0004b94
f00024e5:	80 3d 01 4a 00 f0 01 	cmpb   $0x1,0xf0004a01
f00024ec:	74 05                	je     f00024f3 <Timer_AttachTimerHandler+0x53>
f00024ee:	8b 5d fc             	mov    0xfffffffc(%ebp),%ebx
f00024f1:	c9                   	leave  
f00024f2:	c3                   	ret    
f00024f3:	c7 05 e8 54 00 f0 00 	movl   $0x0,0xf00054e8
f00024fa:	00 00 00 
f00024fd:	eb ef                	jmp    f00024ee <Timer_AttachTimerHandler+0x4e>
f00024ff:	90                   	nop    
f0002500:	ba 01 00 00 00       	mov    $0x1,%edx
f0002505:	89 d1                	mov    %edx,%ecx
f0002507:	87 0d e8 54 00 f0    	xchg   %ecx,0xf00054e8
f000250d:	85 c9                	test   %ecx,%ecx
f000250f:	75 f4                	jne    f0002505 <Timer_AttachTimerHandler+0x65>
f0002511:	eb 9e                	jmp    f00024b1 <Timer_AttachTimerHandler+0x11>
f0002513:	8d b6 00 00 00 00    	lea    0x0(%esi),%esi
f0002519:	8d bc 27 00 00 00 00 	lea    0x0(%edi),%edi

f0002520 <Timer_Handler>:
f0002520:	55                   	push   %ebp
f0002521:	89 e5                	mov    %esp,%ebp
f0002523:	56                   	push   %esi
f0002524:	80 3d 01 4a 00 f0 01 	cmpb   $0x1,0xf0004a01
f000252b:	53                   	push   %ebx
f000252c:	8b 75 08             	mov    0x8(%ebp),%esi
f000252f:	74 5d                	je     f000258e <Timer_Handler+0x6e>
f0002531:	8b 1d 94 4b 00 f0    	mov    0xf0004b94,%ebx
f0002537:	85 db                	test   %ebx,%ebx
f0002539:	74 20                	je     f000255b <Timer_Handler+0x3b>
f000253b:	90                   	nop    
f000253c:	8d 74 26 00          	lea    0x0(%esi),%esi
f0002540:	8b 13                	mov    (%ebx),%edx
f0002542:	8b 4b 08             	mov    0x8(%ebx),%ecx
f0002545:	85 d2                	test   %edx,%edx
f0002547:	74 3a                	je     f0002583 <Timer_Handler+0x63>
f0002549:	8b 43 04             	mov    0x4(%ebx),%eax
f000254c:	48                   	dec    %eax
f000254d:	89 43 04             	mov    %eax,0x4(%ebx)
f0002550:	85 c0                	test   %eax,%eax
f0002552:	74 2c                	je     f0002580 <Timer_Handler+0x60>
f0002554:	8b 5b 0c             	mov    0xc(%ebx),%ebx
f0002557:	85 db                	test   %ebx,%ebx
f0002559:	75 e5                	jne    f0002540 <Timer_Handler+0x20>
f000255b:	80 3d 01 4a 00 f0 01 	cmpb   $0x1,0xf0004a01
f0002562:	74 09                	je     f000256d <Timer_Handler+0x4d>
f0002564:	8d 65 f8             	lea    0xfffffff8(%ebp),%esp
f0002567:	31 c0                	xor    %eax,%eax
f0002569:	5b                   	pop    %ebx
f000256a:	5e                   	pop    %esi
f000256b:	5d                   	pop    %ebp
f000256c:	c3                   	ret    
f000256d:	c7 05 e8 54 00 f0 00 	movl   $0x0,0xf00054e8
f0002574:	00 00 00 
f0002577:	eb eb                	jmp    f0002564 <Timer_Handler+0x44>
f0002579:	8d b4 26 00 00 00 00 	lea    0x0(%esi),%esi
f0002580:	89 53 04             	mov    %edx,0x4(%ebx)
f0002583:	83 ec 0c             	sub    $0xc,%esp
f0002586:	56                   	push   %esi
f0002587:	ff d1                	call   *%ecx
f0002589:	83 c4 10             	add    $0x10,%esp
f000258c:	eb c6                	jmp    f0002554 <Timer_Handler+0x34>
f000258e:	ba 01 00 00 00       	mov    $0x1,%edx
f0002593:	89 d1                	mov    %edx,%ecx
f0002595:	87 0d e8 54 00 f0    	xchg   %ecx,0xf00054e8
f000259b:	85 c9                	test   %ecx,%ecx
f000259d:	75 f4                	jne    f0002593 <Timer_Handler+0x73>
f000259f:	eb 90                	jmp    f0002531 <Timer_Handler+0x11>
	...

f00025b0 <PIC_Init>:
f00025b0:	55                   	push   %ebp
f00025b1:	8a 15 f4 48 00 f0    	mov    0xf00048f4,%dl
f00025b7:	89 e5                	mov    %esp,%ebp
f00025b9:	88 d0                	mov    %dl,%al
f00025bb:	e6 21                	out    %al,$0x21
f00025bd:	8a 0d f5 48 00 f0    	mov    0xf00048f5,%cl
f00025c3:	88 c8                	mov    %cl,%al
f00025c5:	e6 a1                	out    %al,$0xa1
f00025c7:	b0 11                	mov    $0x11,%al
f00025c9:	e6 20                	out    %al,$0x20
f00025cb:	b0 20                	mov    $0x20,%al
f00025cd:	e6 21                	out    %al,$0x21
f00025cf:	b0 04                	mov    $0x4,%al
f00025d1:	e6 21                	out    %al,$0x21
f00025d3:	b0 01                	mov    $0x1,%al
f00025d5:	e6 21                	out    %al,$0x21
f00025d7:	b0 11                	mov    $0x11,%al
f00025d9:	e6 a0                	out    %al,$0xa0
f00025db:	b0 28                	mov    $0x28,%al
f00025dd:	e6 a1                	out    %al,$0xa1
f00025df:	b0 02                	mov    $0x2,%al
f00025e1:	e6 a1                	out    %al,$0xa1
f00025e3:	b0 01                	mov    $0x1,%al
f00025e5:	e6 a1                	out    %al,$0xa1
f00025e7:	b0 21                	mov    $0x21,%al
f00025e9:	81 e2 ff 00 00 00    	and    $0xff,%edx
f00025ef:	ee                   	out    %al,(%dx)
f00025f0:	b0 a1                	mov    $0xa1,%al
f00025f2:	31 d2                	xor    %edx,%edx
f00025f4:	88 ca                	mov    %cl,%dl
f00025f6:	ee                   	out    %al,(%dx)
f00025f7:	5d                   	pop    %ebp
f00025f8:	c3                   	ret    
f00025f9:	8d b4 26 00 00 00 00 	lea    0x0(%esi),%esi

f0002600 <PIC_EnableIRQ>:
f0002600:	55                   	push   %ebp
f0002601:	ba fe ff ff ff       	mov    $0xfffffffe,%edx
f0002606:	89 e5                	mov    %esp,%ebp
f0002608:	8b 4d 08             	mov    0x8(%ebp),%ecx
f000260b:	81 e1 ff ff 00 00    	and    $0xffff,%ecx
f0002611:	d3 c2                	rol    %cl,%edx
f0002613:	66 21 15 f4 48 00 f0 	and    %dx,0xf00048f4
f000261a:	83 e1 08             	and    $0x8,%ecx
f000261d:	74 09                	je     f0002628 <PIC_EnableIRQ+0x28>
f000261f:	a0 f5 48 00 f0       	mov    0xf00048f5,%al
f0002624:	e6 a1                	out    %al,$0xa1
f0002626:	5d                   	pop    %ebp
f0002627:	c3                   	ret    
f0002628:	a0 f4 48 00 f0       	mov    0xf00048f4,%al
f000262d:	e6 21                	out    %al,$0x21
f000262f:	eb f5                	jmp    f0002626 <PIC_EnableIRQ+0x26>
f0002631:	eb 0d                	jmp    f0002640 <PIC_DisableIRQ>
f0002633:	90                   	nop    
f0002634:	90                   	nop    
f0002635:	90                   	nop    
f0002636:	90                   	nop    
f0002637:	90                   	nop    
f0002638:	90                   	nop    
f0002639:	90                   	nop    
f000263a:	90                   	nop    
f000263b:	90                   	nop    
f000263c:	90                   	nop    
f000263d:	90                   	nop    
f000263e:	90                   	nop    
f000263f:	90                   	nop    

f0002640 <PIC_DisableIRQ>:
f0002640:	55                   	push   %ebp
f0002641:	ba 01 00 00 00       	mov    $0x1,%edx
f0002646:	89 e5                	mov    %esp,%ebp
f0002648:	8b 4d 08             	mov    0x8(%ebp),%ecx
f000264b:	81 e1 ff ff 00 00    	and    $0xffff,%ecx
f0002651:	d3 e2                	shl    %cl,%edx
f0002653:	66 09 15 f4 48 00 f0 	or     %dx,0xf00048f4
f000265a:	83 e1 08             	and    $0x8,%ecx
f000265d:	74 09                	je     f0002668 <PIC_DisableIRQ+0x28>
f000265f:	a0 f5 48 00 f0       	mov    0xf00048f5,%al
f0002664:	e6 a1                	out    %al,$0xa1
f0002666:	5d                   	pop    %ebp
f0002667:	c3                   	ret    
f0002668:	a0 f4 48 00 f0       	mov    0xf00048f4,%al
f000266d:	e6 21                	out    %al,$0x21
f000266f:	eb f5                	jmp    f0002666 <PIC_DisableIRQ+0x26>
f0002671:	eb 0d                	jmp    f0002680 <PIC_MaskAndAcknowledge>
f0002673:	90                   	nop    
f0002674:	90                   	nop    
f0002675:	90                   	nop    
f0002676:	90                   	nop    
f0002677:	90                   	nop    
f0002678:	90                   	nop    
f0002679:	90                   	nop    
f000267a:	90                   	nop    
f000267b:	90                   	nop    
f000267c:	90                   	nop    
f000267d:	90                   	nop    
f000267e:	90                   	nop    
f000267f:	90                   	nop    

f0002680 <PIC_MaskAndAcknowledge>:
f0002680:	55                   	push   %ebp
f0002681:	b8 01 00 00 00       	mov    $0x1,%eax
f0002686:	89 e5                	mov    %esp,%ebp
f0002688:	8b 55 08             	mov    0x8(%ebp),%edx
f000268b:	89 d1                	mov    %edx,%ecx
f000268d:	81 e1 ff ff 00 00    	and    $0xffff,%ecx
f0002693:	d3 e0                	shl    %cl,%eax
f0002695:	66 09 05 f4 48 00 f0 	or     %ax,0xf00048f4
f000269c:	83 e1 08             	and    $0x8,%ecx
f000269f:	74 1f                	je     f00026c0 <PIC_MaskAndAcknowledge+0x40>
f00026a1:	e4 a1                	in     $0xa1,%al
f00026a3:	a0 f5 48 00 f0       	mov    0xf00048f5,%al
f00026a8:	e6 a1                	out    %al,$0xa1
f00026aa:	88 d0                	mov    %dl,%al
f00026ac:	83 e0 07             	and    $0x7,%eax
f00026af:	83 c0 60             	add    $0x60,%eax
f00026b2:	e6 a0                	out    %al,$0xa0
f00026b4:	b0 62                	mov    $0x62,%al
f00026b6:	e6 20                	out    %al,$0x20
f00026b8:	5d                   	pop    %ebp
f00026b9:	c3                   	ret    
f00026ba:	8d b6 00 00 00 00    	lea    0x0(%esi),%esi
f00026c0:	e4 21                	in     $0x21,%al
f00026c2:	a0 f4 48 00 f0       	mov    0xf00048f4,%al
f00026c7:	e6 21                	out    %al,$0x21
f00026c9:	8d 42 60             	lea    0x60(%edx),%eax
f00026cc:	eb e8                	jmp    f00026b6 <PIC_MaskAndAcknowledge+0x36>
	...

f00026d0 <PIT_Init>:
f00026d0:	55                   	push   %ebp
f00026d1:	ba 61 00 00 00       	mov    $0x61,%edx
f00026d6:	89 e5                	mov    %esp,%ebp
f00026d8:	ec                   	in     (%dx),%al
f00026d9:	83 c8 01             	or     $0x1,%eax
f00026dc:	ee                   	out    %al,(%dx)
f00026dd:	b0 34                	mov    $0x34,%al
f00026df:	e6 43                	out    %al,$0x43
f00026e1:	b0 a9                	mov    $0xa9,%al
f00026e3:	e6 40                	out    %al,$0x40
f00026e5:	b0 04                	mov    $0x4,%al
f00026e7:	e6 40                	out    %al,$0x40
f00026e9:	b0 74                	mov    $0x74,%al
f00026eb:	e6 43                	out    %al,$0x43
f00026ed:	31 c0                	xor    %eax,%eax
f00026ef:	e6 42                	out    %al,$0x42
f00026f1:	e6 42                	out    %al,$0x42
f00026f3:	b0 b4                	mov    $0xb4,%al
f00026f5:	e6 43                	out    %al,$0x43
f00026f7:	31 c0                	xor    %eax,%eax
f00026f9:	e6 42                	out    %al,$0x42
f00026fb:	e6 42                	out    %al,$0x42
f00026fd:	5d                   	pop    %ebp
f00026fe:	c3                   	ret    
f00026ff:	90                   	nop    

f0002700 <PIT_StopTimer>:
f0002700:	55                   	push   %ebp
f0002701:	b0 34                	mov    $0x34,%al
f0002703:	89 e5                	mov    %esp,%ebp
f0002705:	e6 43                	out    %al,$0x43
f0002707:	31 c0                	xor    %eax,%eax
f0002709:	e6 40                	out    %al,$0x40
f000270b:	e6 40                	out    %al,$0x40
f000270d:	5d                   	pop    %ebp
f000270e:	c3                   	ret    
	...

f0002710 <TextModeVideo_Init>:
f0002710:	55                   	push   %ebp
f0002711:	c7 05 f4 54 00 f0 00 	movl   $0xb8000,0xf00054f4
f0002718:	80 0b 00 
f000271b:	89 e5                	mov    %esp,%ebp
f000271d:	ba d4 03 00 00       	mov    $0x3d4,%edx
f0002722:	b0 09                	mov    $0x9,%al
f0002724:	ee                   	out    %al,(%dx)
f0002725:	ba d5 03 00 00       	mov    $0x3d5,%edx
f000272a:	ec                   	in     (%dx),%al
f000272b:	ba d4 03 00 00       	mov    $0x3d4,%edx
f0002730:	88 c1                	mov    %al,%cl
f0002732:	b0 0a                	mov    $0xa,%al
f0002734:	83 e1 1f             	and    $0x1f,%ecx
f0002737:	ee                   	out    %al,(%dx)
f0002738:	88 c8                	mov    %cl,%al
f000273a:	d0 e8                	shr    %al
f000273c:	ba d5 03 00 00       	mov    $0x3d5,%edx
f0002741:	ee                   	out    %al,(%dx)
f0002742:	b0 0b                	mov    $0xb,%al
f0002744:	ba d4 03 00 00       	mov    $0x3d4,%edx
f0002749:	ee                   	out    %al,(%dx)
f000274a:	88 c8                	mov    %cl,%al
f000274c:	ba d5 03 00 00       	mov    $0x3d5,%edx
f0002751:	ee                   	out    %al,(%dx)
f0002752:	b8 e8 03 00 00       	mov    $0x3e8,%eax
f0002757:	b9 00 80 0b 00       	mov    $0xb8000,%ecx
f000275c:	31 d2                	xor    %edx,%edx
f000275e:	89 11                	mov    %edx,(%ecx)
f0002760:	83 c1 04             	add    $0x4,%ecx
f0002763:	48                   	dec    %eax
f0002764:	75 f8                	jne    f000275e <TextModeVideo_Init+0x4e>
f0002766:	b0 0f                	mov    $0xf,%al
f0002768:	c7 05 ec 54 00 f0 00 	movl   $0x0,0xf00054ec
f000276f:	00 00 00 
f0002772:	c7 05 f0 54 00 f0 00 	movl   $0x0,0xf00054f0
f0002779:	00 00 00 
f000277c:	c7 05 f8 54 00 f0 00 	movl   $0x0,0xf00054f8
f0002783:	00 00 00 
f0002786:	ba d4 03 00 00       	mov    $0x3d4,%edx
f000278b:	ee                   	out    %al,(%dx)
f000278c:	31 c0                	xor    %eax,%eax
f000278e:	ba d5 03 00 00       	mov    $0x3d5,%edx
f0002793:	ee                   	out    %al,(%dx)
f0002794:	b0 0e                	mov    $0xe,%al
f0002796:	ba d4 03 00 00       	mov    $0x3d4,%edx
f000279b:	ee                   	out    %al,(%dx)
f000279c:	31 c0                	xor    %eax,%eax
f000279e:	ba d5 03 00 00       	mov    $0x3d5,%edx
f00027a3:	ee                   	out    %al,(%dx)
f00027a4:	5d                   	pop    %ebp
f00027a5:	c3                   	ret    
f00027a6:	8d 76 00             	lea    0x0(%esi),%esi
f00027a9:	8d bc 27 00 00 00 00 	lea    0x0(%edi),%edi

f00027b0 <TextModeVideo_PostMMInit>:
f00027b0:	55                   	push   %ebp
f00027b1:	89 e5                	mov    %esp,%ebp
f00027b3:	50                   	push   %eax
f00027b4:	50                   	push   %eax
f00027b5:	e8 86 f2 ff ff       	call   f0001a40 <MM_Lock>
f00027ba:	83 ec 0c             	sub    $0xc,%esp
f00027bd:	6a 01                	push   $0x1
f00027bf:	6a 00                	push   $0x0
f00027c1:	6a 08                	push   $0x8
f00027c3:	68 00 00 00 c0       	push   $0xc0000000
f00027c8:	68 00 80 0b 00       	push   $0xb8000
f00027cd:	e8 ae f5 ff ff       	call   f0001d80 <MM_Page_Map>
f00027d2:	c7 05 f4 54 00 f0 00 	movl   $0xc0000000,0xf00054f4
f00027d9:	00 00 c0 
f00027dc:	83 c4 20             	add    $0x20,%esp
f00027df:	89 ec                	mov    %ebp,%esp
f00027e1:	5d                   	pop    %ebp
f00027e2:	e9 89 f2 ff ff       	jmp    f0001a70 <MM_Unlock>
f00027e7:	89 f6                	mov    %esi,%esi
f00027e9:	8d bc 27 00 00 00 00 	lea    0x0(%edi),%edi

f00027f0 <TextModeVideo_MoveCursor>:
f00027f0:	a1 f0 54 00 f0       	mov    0xf00054f0,%eax
f00027f5:	55                   	push   %ebp
f00027f6:	89 e5                	mov    %esp,%ebp
f00027f8:	ba d4 03 00 00       	mov    $0x3d4,%edx
f00027fd:	8d 0c 80             	lea    (%eax,%eax,4),%ecx
f0002800:	a1 ec 54 00 f0       	mov    0xf00054ec,%eax
f0002805:	c1 e1 04             	shl    $0x4,%ecx
f0002808:	01 c1                	add    %eax,%ecx
f000280a:	b0 0f                	mov    $0xf,%al
f000280c:	ee                   	out    %al,(%dx)
f000280d:	88 c8                	mov    %cl,%al
f000280f:	ba d5 03 00 00       	mov    $0x3d5,%edx
f0002814:	ee                   	out    %al,(%dx)
f0002815:	b0 0e                	mov    $0xe,%al
f0002817:	ba d4 03 00 00       	mov    $0x3d4,%edx
f000281c:	ee                   	out    %al,(%dx)
f000281d:	c1 e9 08             	shr    $0x8,%ecx
f0002820:	ba d5 03 00 00       	mov    $0x3d5,%edx
f0002825:	88 c8                	mov    %cl,%al
f0002827:	ee                   	out    %al,(%dx)
f0002828:	5d                   	pop    %ebp
f0002829:	c3                   	ret    
f000282a:	8d b6 00 00 00 00    	lea    0x0(%esi),%esi

f0002830 <TextModeVideo_Cls>:
f0002830:	55                   	push   %ebp
f0002831:	8b 0d f4 54 00 f0    	mov    0xf00054f4,%ecx
f0002837:	89 e5                	mov    %esp,%ebp
f0002839:	31 d2                	xor    %edx,%edx
f000283b:	b8 e8 03 00 00       	mov    $0x3e8,%eax
f0002840:	89 11                	mov    %edx,(%ecx)
f0002842:	83 c1 04             	add    $0x4,%ecx
f0002845:	48                   	dec    %eax
f0002846:	75 f8                	jne    f0002840 <TextModeVideo_Cls+0x10>
f0002848:	b0 0f                	mov    $0xf,%al
f000284a:	c7 05 ec 54 00 f0 00 	movl   $0x0,0xf00054ec
f0002851:	00 00 00 
f0002854:	c7 05 f0 54 00 f0 00 	movl   $0x0,0xf00054f0
f000285b:	00 00 00 
f000285e:	c7 05 f8 54 00 f0 00 	movl   $0x0,0xf00054f8
f0002865:	00 00 00 
f0002868:	ba d4 03 00 00       	mov    $0x3d4,%edx
f000286d:	ee                   	out    %al,(%dx)
f000286e:	31 c0                	xor    %eax,%eax
f0002870:	ba d5 03 00 00       	mov    $0x3d5,%edx
f0002875:	ee                   	out    %al,(%dx)
f0002876:	b0 0e                	mov    $0xe,%al
f0002878:	ba d4 03 00 00       	mov    $0x3d4,%edx
f000287d:	ee                   	out    %al,(%dx)
f000287e:	31 c0                	xor    %eax,%eax
f0002880:	ba d5 03 00 00       	mov    $0x3d5,%edx
f0002885:	ee                   	out    %al,(%dx)
f0002886:	5d                   	pop    %ebp
f0002887:	c3                   	ret    
f0002888:	90                   	nop    
f0002889:	8d b4 26 00 00 00 00 	lea    0x0(%esi),%esi

f0002890 <TextModeVideo_ChangeColour>:
f0002890:	55                   	push   %ebp
f0002891:	89 e5                	mov    %esp,%ebp
f0002893:	8b 55 08             	mov    0x8(%ebp),%edx
f0002896:	5d                   	pop    %ebp
f0002897:	88 15 f8 48 00 f0    	mov    %dl,0xf00048f8
f000289d:	c3                   	ret    
f000289e:	89 f6                	mov    %esi,%esi

f00028a0 <TextModeVideo_WriteChar>:
f00028a0:	55                   	push   %ebp
f00028a1:	89 e5                	mov    %esp,%ebp
f00028a3:	56                   	push   %esi
f00028a4:	53                   	push   %ebx
f00028a5:	8b 4d 08             	mov    0x8(%ebp),%ecx
f00028a8:	80 f9 0a             	cmp    $0xa,%cl
f00028ab:	74 53                	je     f0002900 <TextModeVideo_WriteChar+0x60>
f00028ad:	80 f9 0d             	cmp    $0xd,%cl
f00028b0:	74 4e                	je     f0002900 <TextModeVideo_WriteChar+0x60>
f00028b2:	8b 1d f8 54 00 f0    	mov    0xf00054f8,%ebx
f00028b8:	a1 f4 54 00 f0       	mov    0xf00054f4,%eax
f00028bd:	88 0c 03             	mov    %cl,(%ebx,%eax,1)
f00028c0:	8b 35 f4 54 00 f0    	mov    0xf00054f4,%esi
f00028c6:	8b 1d f8 54 00 f0    	mov    0xf00054f8,%ebx
f00028cc:	8a 15 f8 48 00 f0    	mov    0xf00048f8,%dl
f00028d2:	88 54 33 01          	mov    %dl,0x1(%ebx,%esi,1)
f00028d6:	8b 35 ec 54 00 f0    	mov    0xf00054ec,%esi
f00028dc:	a1 f8 54 00 f0       	mov    0xf00054f8,%eax
f00028e1:	46                   	inc    %esi
f00028e2:	83 c0 02             	add    $0x2,%eax
f00028e5:	89 35 ec 54 00 f0    	mov    %esi,0xf00054ec
f00028eb:	a3 f8 54 00 f0       	mov    %eax,0xf00054f8
f00028f0:	83 fe 4f             	cmp    $0x4f,%esi
f00028f3:	77 0b                	ja     f0002900 <TextModeVideo_WriteChar+0x60>
f00028f5:	5b                   	pop    %ebx
f00028f6:	5e                   	pop    %esi
f00028f7:	5d                   	pop    %ebp
f00028f8:	c3                   	ret    
f00028f9:	8d b4 26 00 00 00 00 	lea    0x0(%esi),%esi
f0002900:	8b 15 f0 54 00 f0    	mov    0xf00054f0,%edx
f0002906:	c7 05 ec 54 00 f0 00 	movl   $0x0,0xf00054ec
f000290d:	00 00 00 
f0002910:	42                   	inc    %edx
f0002911:	89 15 f0 54 00 f0    	mov    %edx,0xf00054f0
f0002917:	8d 0c 92             	lea    (%edx,%edx,4),%ecx
f000291a:	c1 e1 05             	shl    $0x5,%ecx
f000291d:	83 fa 19             	cmp    $0x19,%edx
f0002920:	89 0d f8 54 00 f0    	mov    %ecx,0xf00054f8
f0002926:	74 38                	je     f0002960 <TextModeVideo_WriteChar+0xc0>
f0002928:	8d 34 92             	lea    (%edx,%edx,4),%esi
f000292b:	8b 0d ec 54 00 f0    	mov    0xf00054ec,%ecx
f0002931:	c1 e6 04             	shl    $0x4,%esi
f0002934:	bb d4 03 00 00       	mov    $0x3d4,%ebx
f0002939:	01 ce                	add    %ecx,%esi
f000293b:	b0 0f                	mov    $0xf,%al
f000293d:	89 da                	mov    %ebx,%edx
f000293f:	ee                   	out    %al,(%dx)
f0002940:	89 f0                	mov    %esi,%eax
f0002942:	b9 d5 03 00 00       	mov    $0x3d5,%ecx
f0002947:	89 ca                	mov    %ecx,%edx
f0002949:	ee                   	out    %al,(%dx)
f000294a:	89 da                	mov    %ebx,%edx
f000294c:	b0 0e                	mov    $0xe,%al
f000294e:	ee                   	out    %al,(%dx)
f000294f:	89 f2                	mov    %esi,%edx
f0002951:	c1 ea 08             	shr    $0x8,%edx
f0002954:	88 d0                	mov    %dl,%al
f0002956:	89 ca                	mov    %ecx,%edx
f0002958:	ee                   	out    %al,(%dx)
f0002959:	eb 9a                	jmp    f00028f5 <TextModeVideo_WriteChar+0x55>
f000295b:	90                   	nop    
f000295c:	8d 74 26 00          	lea    0x0(%esi),%esi
f0002960:	8b 1d f4 54 00 f0    	mov    0xf00054f4,%ebx
f0002966:	be c0 03 00 00       	mov    $0x3c0,%esi
f000296b:	89 da                	mov    %ebx,%edx
f000296d:	8d 83 a0 00 00 00    	lea    0xa0(%ebx),%eax
f0002973:	8b 08                	mov    (%eax),%ecx
f0002975:	83 c0 04             	add    $0x4,%eax
f0002978:	89 0a                	mov    %ecx,(%edx)
f000297a:	83 c2 04             	add    $0x4,%edx
f000297d:	4e                   	dec    %esi
f000297e:	75 f3                	jne    f0002973 <TextModeVideo_WriteChar+0xd3>
f0002980:	bb 28 00 00 00       	mov    $0x28,%ebx
f0002985:	8b 35 f4 54 00 f0    	mov    0xf00054f4,%esi
f000298b:	31 c9                	xor    %ecx,%ecx
f000298d:	81 c6 00 0f 00 00    	add    $0xf00,%esi
f0002993:	89 0e                	mov    %ecx,(%esi)
f0002995:	83 c6 04             	add    $0x4,%esi
f0002998:	4b                   	dec    %ebx
f0002999:	75 f8                	jne    f0002993 <TextModeVideo_WriteChar+0xf3>
f000299b:	a1 f8 54 00 f0       	mov    0xf00054f8,%eax
f00029a0:	8b 15 f0 54 00 f0    	mov    0xf00054f0,%edx
f00029a6:	2d a0 00 00 00       	sub    $0xa0,%eax
f00029ab:	4a                   	dec    %edx
f00029ac:	a3 f8 54 00 f0       	mov    %eax,0xf00054f8
f00029b1:	89 15 f0 54 00 f0    	mov    %edx,0xf00054f0
f00029b7:	e9 6c ff ff ff       	jmp    f0002928 <TextModeVideo_WriteChar+0x88>
f00029bc:	8d 74 26 00          	lea    0x0(%esi),%esi

f00029c0 <TextModeVideo_DeleteChar>:
f00029c0:	8b 0d ec 54 00 f0    	mov    0xf00054ec,%ecx
f00029c6:	8b 15 f4 54 00 f0    	mov    0xf00054f4,%edx
f00029cc:	49                   	dec    %ecx
f00029cd:	55                   	push   %ebp
f00029ce:	89 0d ec 54 00 f0    	mov    %ecx,0xf00054ec
f00029d4:	89 e5                	mov    %esp,%ebp
f00029d6:	8b 0d f8 54 00 f0    	mov    0xf00054f8,%ecx
f00029dc:	83 e9 02             	sub    $0x2,%ecx
f00029df:	89 0d f8 54 00 f0    	mov    %ecx,0xf00054f8
f00029e5:	c6 04 11 00          	movb   $0x0,(%ecx,%edx,1)
f00029e9:	8b 15 f4 54 00 f0    	mov    0xf00054f4,%edx
f00029ef:	a1 f8 54 00 f0       	mov    0xf00054f8,%eax
f00029f4:	8a 0d f8 48 00 f0    	mov    0xf00048f8,%cl
f00029fa:	88 4c 10 01          	mov    %cl,0x1(%eax,%edx,1)
f00029fe:	5d                   	pop    %ebp
f00029ff:	c3                   	ret    

f0002a00 <TextModeVideo_WriteString>:
f0002a00:	55                   	push   %ebp
f0002a01:	89 e5                	mov    %esp,%ebp
f0002a03:	56                   	push   %esi
f0002a04:	53                   	push   %ebx
f0002a05:	31 db                	xor    %ebx,%ebx
f0002a07:	8b 75 08             	mov    0x8(%ebp),%esi
f0002a0a:	8a 06                	mov    (%esi),%al
f0002a0c:	84 c0                	test   %al,%al
f0002a0e:	74 19                	je     f0002a29 <TextModeVideo_WriteString+0x29>
f0002a10:	83 ec 0c             	sub    $0xc,%esp
f0002a13:	43                   	inc    %ebx
f0002a14:	25 ff 00 00 00       	and    $0xff,%eax
f0002a19:	50                   	push   %eax
f0002a1a:	e8 81 fe ff ff       	call   f00028a0 <TextModeVideo_WriteChar>
f0002a1f:	8a 04 33             	mov    (%ebx,%esi,1),%al
f0002a22:	83 c4 10             	add    $0x10,%esp
f0002a25:	84 c0                	test   %al,%al
f0002a27:	75 e7                	jne    f0002a10 <TextModeVideo_WriteString+0x10>
f0002a29:	8d 65 f8             	lea    0xfffffff8(%ebp),%esp
f0002a2c:	5b                   	pop    %ebx
f0002a2d:	5e                   	pop    %esi
f0002a2e:	5d                   	pop    %ebp
f0002a2f:	c3                   	ret    

f0002a30 <Descriptor_Init>:
f0002a30:	55                   	push   %ebp
f0002a31:	89 e5                	mov    %esp,%ebp
f0002a33:	8b 55 08             	mov    0x8(%ebp),%edx
f0002a36:	89 15 00 55 00 f0    	mov    %edx,0xf0005500
f0002a3c:	8b 55 0c             	mov    0xc(%ebp),%edx
f0002a3f:	89 15 fc 54 00 f0    	mov    %edx,0xf00054fc
f0002a45:	5d                   	pop    %ebp
f0002a46:	c3                   	ret    
f0002a47:	89 f6                	mov    %esi,%esi
f0002a49:	8d bc 27 00 00 00 00 	lea    0x0(%edi),%edi

f0002a50 <Descriptor_SetInterruptGate>:
f0002a50:	55                   	push   %ebp
f0002a51:	a1 00 55 00 f0       	mov    0xf0005500,%eax
f0002a56:	89 e5                	mov    %esp,%ebp
f0002a58:	8b 4d 08             	mov    0x8(%ebp),%ecx
f0002a5b:	8b 55 0c             	mov    0xc(%ebp),%edx
f0002a5e:	66 89 14 c8          	mov    %dx,(%eax,%ecx,8)
f0002a62:	66 c7 44 c8 02 08 00 	movw   $0x8,0x2(%eax,%ecx,8)
f0002a69:	c1 ea 10             	shr    $0x10,%edx
f0002a6c:	66 c7 44 c8 04 00 8e 	movw   $0x8e00,0x4(%eax,%ecx,8)
f0002a73:	66 89 54 c8 06       	mov    %dx,0x6(%eax,%ecx,8)
f0002a78:	5d                   	pop    %ebp
f0002a79:	c3                   	ret    
f0002a7a:	8d b6 00 00 00 00    	lea    0x0(%esi),%esi

f0002a80 <Descriptor_SetTaskGate>:
f0002a80:	55                   	push   %ebp
f0002a81:	a1 00 55 00 f0       	mov    0xf0005500,%eax
f0002a86:	89 e5                	mov    %esp,%ebp
f0002a88:	8b 4d 08             	mov    0x8(%ebp),%ecx
f0002a8b:	8b 55 0c             	mov    0xc(%ebp),%edx
f0002a8e:	66 89 14 c8          	mov    %dx,(%eax,%ecx,8)
f0002a92:	66 c7 44 c8 02 08 00 	movw   $0x8,0x2(%eax,%ecx,8)
f0002a99:	c1 ea 10             	shr    $0x10,%edx
f0002a9c:	66 c7 44 c8 04 00 85 	movw   $0x8500,0x4(%eax,%ecx,8)
f0002aa3:	66 89 54 c8 06       	mov    %dx,0x6(%eax,%ecx,8)
f0002aa8:	5d                   	pop    %ebp
f0002aa9:	c3                   	ret    
f0002aaa:	8d b6 00 00 00 00    	lea    0x0(%esi),%esi

f0002ab0 <Descriptor_SetCallGate>:
f0002ab0:	55                   	push   %ebp
f0002ab1:	a1 00 55 00 f0       	mov    0xf0005500,%eax
f0002ab6:	89 e5                	mov    %esp,%ebp
f0002ab8:	8b 4d 08             	mov    0x8(%ebp),%ecx
f0002abb:	8b 55 0c             	mov    0xc(%ebp),%edx
f0002abe:	66 89 14 c8          	mov    %dx,(%eax,%ecx,8)
f0002ac2:	66 c7 44 c8 02 08 00 	movw   $0x8,0x2(%eax,%ecx,8)
f0002ac9:	c1 ea 10             	shr    $0x10,%edx
f0002acc:	66 c7 44 c8 04 00 8c 	movw   $0x8c00,0x4(%eax,%ecx,8)
f0002ad3:	66 89 54 c8 06       	mov    %dx,0x6(%eax,%ecx,8)
f0002ad8:	5d                   	pop    %ebp
f0002ad9:	c3                   	ret    
f0002ada:	8d b6 00 00 00 00    	lea    0x0(%esi),%esi

f0002ae0 <Descriptor_SetBase>:
f0002ae0:	55                   	push   %ebp
f0002ae1:	8b 15 fc 54 00 f0    	mov    0xf00054fc,%edx
f0002ae7:	89 e5                	mov    %esp,%ebp
f0002ae9:	8b 45 08             	mov    0x8(%ebp),%eax
f0002aec:	8b 4d 0c             	mov    0xc(%ebp),%ecx
f0002aef:	66 c1 e8 03          	shr    $0x3,%ax
f0002af3:	25 ff ff 00 00       	and    $0xffff,%eax
f0002af8:	66 89 4c c2 02       	mov    %cx,0x2(%edx,%eax,8)
f0002afd:	c1 e9 10             	shr    $0x10,%ecx
f0002b00:	88 4c c2 04          	mov    %cl,0x4(%edx,%eax,8)
f0002b04:	c1 e9 08             	shr    $0x8,%ecx
f0002b07:	8b 15 fc 54 00 f0    	mov    0xf00054fc,%edx
f0002b0d:	88 4c c2 07          	mov    %cl,0x7(%edx,%eax,8)
f0002b11:	5d                   	pop    %ebp
f0002b12:	c3                   	ret    
f0002b13:	8d b6 00 00 00 00    	lea    0x0(%esi),%esi
f0002b19:	8d bc 27 00 00 00 00 	lea    0x0(%edi),%edi

f0002b20 <Descriptor_SetLimit>:
f0002b20:	55                   	push   %ebp
f0002b21:	89 e5                	mov    %esp,%ebp
f0002b23:	8b 45 08             	mov    0x8(%ebp),%eax
f0002b26:	8b 55 0c             	mov    0xc(%ebp),%edx
f0002b29:	66 c1 e8 03          	shr    $0x3,%ax
f0002b2d:	89 c1                	mov    %eax,%ecx
f0002b2f:	a1 fc 54 00 f0       	mov    0xf00054fc,%eax
f0002b34:	81 e1 ff ff 00 00    	and    $0xffff,%ecx
f0002b3a:	81 fa ff ff 0f 00    	cmp    $0xfffff,%edx
f0002b40:	c6 44 c8 06 40       	movb   $0x40,0x6(%eax,%ecx,8)
f0002b45:	76 0d                	jbe    f0002b54 <Descriptor_SetLimit+0x34>
f0002b47:	c1 ea 0c             	shr    $0xc,%edx
f0002b4a:	a1 fc 54 00 f0       	mov    0xf00054fc,%eax
f0002b4f:	80 4c c8 06 80       	orb    $0x80,0x6(%eax,%ecx,8)
f0002b54:	a1 fc 54 00 f0       	mov    0xf00054fc,%eax
f0002b59:	66 89 14 c8          	mov    %dx,(%eax,%ecx,8)
f0002b5d:	c1 ea 10             	shr    $0x10,%edx
f0002b60:	83 e2 0f             	and    $0xf,%edx
f0002b63:	08 54 c8 06          	or     %dl,0x6(%eax,%ecx,8)
f0002b67:	5d                   	pop    %ebp
f0002b68:	c3                   	ret    
f0002b69:	8d b4 26 00 00 00 00 	lea    0x0(%esi),%esi

f0002b70 <Descriptor_SetAccess>:
f0002b70:	55                   	push   %ebp
f0002b71:	8b 15 fc 54 00 f0    	mov    0xf00054fc,%edx
f0002b77:	89 e5                	mov    %esp,%ebp
f0002b79:	8b 45 08             	mov    0x8(%ebp),%eax
f0002b7c:	8b 4d 0c             	mov    0xc(%ebp),%ecx
f0002b7f:	66 c1 e8 03          	shr    $0x3,%ax
f0002b83:	25 ff ff 00 00       	and    $0xffff,%eax
f0002b88:	88 4c c2 05          	mov    %cl,0x5(%edx,%eax,8)
f0002b8c:	5d                   	pop    %ebp
f0002b8d:	c3                   	ret    
	...

f0002b90 <Exception_Debug>:
f0002b90:	55                   	push   %ebp
f0002b91:	89 e5                	mov    %esp,%ebp
f0002b93:	51                   	push   %ecx
f0002b94:	51                   	push   %ecx
f0002b95:	8b 4d 08             	mov    0x8(%ebp),%ecx
f0002b98:	8b 41 34             	mov    0x34(%ecx),%eax
f0002b9b:	50                   	push   %eax
f0002b9c:	66 8b 51 38          	mov    0x38(%ecx),%dx
f0002ba0:	81 e2 ff ff 00 00    	and    $0xffff,%edx
f0002ba6:	52                   	push   %edx
f0002ba7:	68 bc 42 00 f0       	push   $0xf00042bc
f0002bac:	68 02 44 00 f0       	push   $0xf0004402
f0002bb1:	e8 fa e5 ff ff       	call   f00011b0 <Syslog_Entry>
f0002bb6:	89 ec                	mov    %ebp,%esp
f0002bb8:	5d                   	pop    %ebp
f0002bb9:	c3                   	ret    
f0002bba:	8d b6 00 00 00 00    	lea    0x0(%esi),%esi

f0002bc0 <Exception_InvalidOpCode>:
f0002bc0:	55                   	push   %ebp
f0002bc1:	89 e5                	mov    %esp,%ebp
f0002bc3:	51                   	push   %ecx
f0002bc4:	51                   	push   %ecx
f0002bc5:	8b 4d 08             	mov    0x8(%ebp),%ecx
f0002bc8:	8b 41 34             	mov    0x34(%ecx),%eax
f0002bcb:	50                   	push   %eax
f0002bcc:	66 8b 51 38          	mov    0x38(%ecx),%dx
f0002bd0:	81 e2 ff ff 00 00    	and    $0xffff,%edx
f0002bd6:	52                   	push   %edx
f0002bd7:	68 e4 42 00 f0       	push   $0xf00042e4
f0002bdc:	68 02 44 00 f0       	push   $0xf0004402
f0002be1:	e8 ca e5 ff ff       	call   f00011b0 <Syslog_Entry>
f0002be6:	89 ec                	mov    %ebp,%esp
f0002be8:	5d                   	pop    %ebp
f0002be9:	c3                   	ret    
f0002bea:	8d b6 00 00 00 00    	lea    0x0(%esi),%esi

f0002bf0 <Exception_Double>:
f0002bf0:	55                   	push   %ebp
f0002bf1:	89 e5                	mov    %esp,%ebp
f0002bf3:	51                   	push   %ecx
f0002bf4:	51                   	push   %ecx
f0002bf5:	8b 4d 08             	mov    0x8(%ebp),%ecx
f0002bf8:	8b 41 34             	mov    0x34(%ecx),%eax
f0002bfb:	50                   	push   %eax
f0002bfc:	66 8b 51 38          	mov    0x38(%ecx),%dx
f0002c00:	81 e2 ff ff 00 00    	and    $0xffff,%edx
f0002c06:	52                   	push   %edx
f0002c07:	68 10 43 00 f0       	push   $0xf0004310
f0002c0c:	68 02 44 00 f0       	push   $0xf0004402
f0002c11:	e8 9a e5 ff ff       	call   f00011b0 <Syslog_Entry>
f0002c16:	89 ec                	mov    %ebp,%esp
f0002c18:	5d                   	pop    %ebp
f0002c19:	c3                   	ret    
f0002c1a:	8d b6 00 00 00 00    	lea    0x0(%esi),%esi

f0002c20 <Exception_StackFault>:
f0002c20:	55                   	push   %ebp
f0002c21:	89 e5                	mov    %esp,%ebp
f0002c23:	51                   	push   %ecx
f0002c24:	51                   	push   %ecx
f0002c25:	8b 4d 08             	mov    0x8(%ebp),%ecx
f0002c28:	8b 41 34             	mov    0x34(%ecx),%eax
f0002c2b:	50                   	push   %eax
f0002c2c:	66 8b 51 38          	mov    0x38(%ecx),%dx
f0002c30:	81 e2 ff ff 00 00    	and    $0xffff,%edx
f0002c36:	52                   	push   %edx
f0002c37:	68 38 43 00 f0       	push   $0xf0004338
f0002c3c:	68 02 44 00 f0       	push   $0xf0004402
f0002c41:	e8 6a e5 ff ff       	call   f00011b0 <Syslog_Entry>
f0002c46:	89 ec                	mov    %ebp,%esp
f0002c48:	5d                   	pop    %ebp
f0002c49:	c3                   	ret    
f0002c4a:	8d b6 00 00 00 00    	lea    0x0(%esi),%esi

f0002c50 <Exception_Page>:
f0002c50:	55                   	push   %ebp
f0002c51:	89 e5                	mov    %esp,%ebp
f0002c53:	57                   	push   %edi
f0002c54:	56                   	push   %esi
f0002c55:	53                   	push   %ebx
f0002c56:	83 ec 18             	sub    $0x18,%esp
f0002c59:	8b 55 08             	mov    0x8(%ebp),%edx
f0002c5c:	89 55 f0             	mov    %edx,0xfffffff0(%ebp)
f0002c5f:	0f 20 d0             	mov    %cr2,%eax
f0002c62:	89 c2                	mov    %eax,%edx
f0002c64:	81 e2 00 f0 ff ff    	and    $0xfffff000,%edx
f0002c6a:	89 55 ec             	mov    %edx,0xffffffec(%ebp)
f0002c6d:	52                   	push   %edx
f0002c6e:	e8 2d f0 ff ff       	call   f0001ca0 <MM_GetPTAddress>
f0002c73:	83 c4 10             	add    $0x10,%esp
f0002c76:	8b 4d ec             	mov    0xffffffec(%ebp),%ecx
f0002c79:	8b 1d 70 4a 00 f0    	mov    0xf0004a70,%ebx
f0002c7f:	29 c1                	sub    %eax,%ecx
f0002c81:	c1 e9 0c             	shr    $0xc,%ecx
f0002c84:	c1 e8 0c             	shr    $0xc,%eax
f0002c87:	01 c8                	add    %ecx,%eax
f0002c89:	8b 0c 83             	mov    (%ebx,%eax,4),%ecx
f0002c8c:	89 4d e8             	mov    %ecx,0xffffffe8(%ebp)
f0002c8f:	f6 c5 02             	test   $0x2,%ch
f0002c92:	0f 85 2d 01 00 00    	jne    f0002dc5 <Exception_Page+0x175>
f0002c98:	8b 45 ec             	mov    0xffffffec(%ebp),%eax
f0002c9b:	3b 05 88 4a 00 f0    	cmp    0xf0004a88,%eax
f0002ca1:	72 0c                	jb     f0002caf <Exception_Page+0x5f>
f0002ca3:	3b 05 8c 4a 00 f0    	cmp    0xf0004a8c,%eax
f0002ca9:	0f 82 01 01 00 00    	jb     f0002db0 <Exception_Page+0x160>
f0002caf:	53                   	push   %ebx
f0002cb0:	8b 45 f0             	mov    0xfffffff0(%ebp),%eax
f0002cb3:	50                   	push   %eax
f0002cb4:	68 0c 44 00 f0       	push   $0xf000440c
f0002cb9:	6a 00                	push   $0x0
f0002cbb:	e8 f0 e4 ff ff       	call   f00011b0 <Syslog_Entry>
f0002cc0:	8b 7d f0             	mov    0xfffffff0(%ebp),%edi
f0002cc3:	58                   	pop    %eax
f0002cc4:	5a                   	pop    %edx
f0002cc5:	8b 4f 14             	mov    0x14(%edi),%ecx
f0002cc8:	51                   	push   %ecx
f0002cc9:	8b 5f 18             	mov    0x18(%edi),%ebx
f0002ccc:	53                   	push   %ebx
f0002ccd:	8b 57 1c             	mov    0x1c(%edi),%edx
f0002cd0:	52                   	push   %edx
f0002cd1:	8b 77 20             	mov    0x20(%edi),%esi
f0002cd4:	56                   	push   %esi
f0002cd5:	68 60 43 00 f0       	push   $0xf0004360
f0002cda:	6a 00                	push   $0x0
f0002cdc:	e8 cf e4 ff ff       	call   f00011b0 <Syslog_Entry>
f0002ce1:	8b 55 f0             	mov    0xfffffff0(%ebp),%edx
f0002ce4:	83 c4 18             	add    $0x18,%esp
f0002ce7:	8b 42 08             	mov    0x8(%edx),%eax
f0002cea:	50                   	push   %eax
f0002ceb:	8b 4a 0c             	mov    0xc(%edx),%ecx
f0002cee:	51                   	push   %ecx
f0002cef:	8b 5a 44             	mov    0x44(%edx),%ebx
f0002cf2:	53                   	push   %ebx
f0002cf3:	8b 7a 10             	mov    0x10(%edx),%edi
f0002cf6:	57                   	push   %edi
f0002cf7:	68 8c 43 00 f0       	push   $0xf000438c
f0002cfc:	6a 00                	push   $0x0
f0002cfe:	e8 ad e4 ff ff       	call   f00011b0 <Syslog_Entry>
f0002d03:	8b 75 f0             	mov    0xfffffff0(%ebp),%esi
f0002d06:	83 c4 20             	add    $0x20,%esp
f0002d09:	8b 7e 44             	mov    0x44(%esi),%edi
f0002d0c:	31 f6                	xor    %esi,%esi
f0002d0e:	89 f6                	mov    %esi,%esi
f0002d10:	8b 1c b7             	mov    (%edi,%esi,4),%ebx
f0002d13:	8d 14 b5 00 00 00 00 	lea    0x0(,%esi,4),%edx
f0002d1a:	53                   	push   %ebx
f0002d1b:	52                   	push   %edx
f0002d1c:	89 f3                	mov    %esi,%ebx
f0002d1e:	68 1b 44 00 f0       	push   $0xf000441b
f0002d23:	6a 00                	push   $0x0
f0002d25:	46                   	inc    %esi
f0002d26:	e8 85 e4 ff ff       	call   f00011b0 <Syslog_Entry>
f0002d2b:	8b 0c 9f             	mov    (%edi,%ebx,4),%ecx
f0002d2e:	83 c4 0c             	add    $0xc,%esp
f0002d31:	51                   	push   %ecx
f0002d32:	68 22 44 00 f0       	push   $0xf0004422
f0002d37:	6a 00                	push   $0x0
f0002d39:	e8 72 e4 ff ff       	call   f00011b0 <Syslog_Entry>
f0002d3e:	89 f2                	mov    %esi,%edx
f0002d40:	83 c4 0c             	add    $0xc,%esp
f0002d43:	46                   	inc    %esi
f0002d44:	8b 0c 97             	mov    (%edi,%edx,4),%ecx
f0002d47:	89 f3                	mov    %esi,%ebx
f0002d49:	51                   	push   %ecx
f0002d4a:	46                   	inc    %esi
f0002d4b:	68 22 44 00 f0       	push   $0xf0004422
f0002d50:	46                   	inc    %esi
f0002d51:	6a 00                	push   $0x0
f0002d53:	e8 58 e4 ff ff       	call   f00011b0 <Syslog_Entry>
f0002d58:	83 c4 0c             	add    $0xc,%esp
f0002d5b:	8b 14 9f             	mov    (%edi,%ebx,4),%edx
f0002d5e:	52                   	push   %edx
f0002d5f:	68 2a 44 00 f0       	push   $0xf000442a
f0002d64:	6a 00                	push   $0x0
f0002d66:	e8 45 e4 ff ff       	call   f00011b0 <Syslog_Entry>
f0002d6b:	83 c4 10             	add    $0x10,%esp
f0002d6e:	83 fe 1f             	cmp    $0x1f,%esi
f0002d71:	76 9d                	jbe    f0002d10 <Exception_Page+0xc0>
f0002d73:	50                   	push   %eax
f0002d74:	8b 75 e8             	mov    0xffffffe8(%ebp),%esi
f0002d77:	56                   	push   %esi
f0002d78:	8b 55 f0             	mov    0xfffffff0(%ebp),%edx
f0002d7b:	8b 5a 34             	mov    0x34(%edx),%ebx
f0002d7e:	53                   	push   %ebx
f0002d7f:	8b 42 38             	mov    0x38(%edx),%eax
f0002d82:	50                   	push   %eax
f0002d83:	66 8b 7a 3c          	mov    0x3c(%edx),%di
f0002d87:	81 e7 ff ff 00 00    	and    $0xffff,%edi
f0002d8d:	57                   	push   %edi
f0002d8e:	8b 75 ec             	mov    0xffffffec(%ebp),%esi
f0002d91:	56                   	push   %esi
f0002d92:	68 bc 43 00 f0       	push   $0xf00043bc
f0002d97:	68 02 44 00 f0       	push   $0xf0004402
f0002d9c:	e8 0f e4 ff ff       	call   f00011b0 <Syslog_Entry>
f0002da1:	83 c4 20             	add    $0x20,%esp
f0002da4:	8d 65 f4             	lea    0xfffffff4(%ebp),%esp
f0002da7:	5b                   	pop    %ebx
f0002da8:	5e                   	pop    %esi
f0002da9:	5f                   	pop    %edi
f0002daa:	5d                   	pop    %ebp
f0002dab:	e9 cf db ff ff       	jmp    f000097f <halt>
f0002db0:	56                   	push   %esi
f0002db1:	56                   	push   %esi
f0002db2:	6a 01                	push   $0x1
f0002db4:	50                   	push   %eax
f0002db5:	e8 c6 f1 ff ff       	call   f0001f80 <MM_Page_Allocate>
f0002dba:	83 c4 10             	add    $0x10,%esp
f0002dbd:	8d 65 f4             	lea    0xfffffff4(%ebp),%esp
f0002dc0:	5b                   	pop    %ebx
f0002dc1:	5e                   	pop    %esi
f0002dc2:	5f                   	pop    %edi
f0002dc3:	5d                   	pop    %ebp
f0002dc4:	c3                   	ret    
f0002dc5:	50                   	push   %eax
f0002dc6:	50                   	push   %eax
f0002dc7:	6a 01                	push   $0x1
f0002dc9:	8b 45 ec             	mov    0xffffffec(%ebp),%eax
f0002dcc:	eb e6                	jmp    f0002db4 <Exception_Page+0x164>
f0002dce:	89 f6                	mov    %esi,%esi

f0002dd0 <Exception_GPF>:
f0002dd0:	55                   	push   %ebp
f0002dd1:	89 e5                	mov    %esp,%ebp
f0002dd3:	51                   	push   %ecx
f0002dd4:	51                   	push   %ecx
f0002dd5:	8b 4d 08             	mov    0x8(%ebp),%ecx
f0002dd8:	8b 41 38             	mov    0x38(%ecx),%eax
f0002ddb:	50                   	push   %eax
f0002ddc:	66 8b 51 3c          	mov    0x3c(%ecx),%dx
f0002de0:	81 e2 ff ff 00 00    	and    $0xffff,%edx
f0002de6:	52                   	push   %edx
f0002de7:	68 33 44 00 f0       	push   $0xf0004433
f0002dec:	68 02 44 00 f0       	push   $0xf0004402
f0002df1:	e8 ba e3 ff ff       	call   f00011b0 <Syslog_Entry>
f0002df6:	83 c4 10             	add    $0x10,%esp
f0002df9:	89 ec                	mov    %ebp,%esp
f0002dfb:	5d                   	pop    %ebp
f0002dfc:	e9 7e db ff ff       	jmp    f000097f <halt>
	...

f0002e10 <vsnprintf>:
f0002e10:	55                   	push   %ebp
f0002e11:	89 e5                	mov    %esp,%ebp
f0002e13:	57                   	push   %edi
f0002e14:	56                   	push   %esi
f0002e15:	53                   	push   %ebx
f0002e16:	83 ec 0c             	sub    $0xc,%esp
f0002e19:	8b 75 08             	mov    0x8(%ebp),%esi
f0002e1c:	8b 4d 0c             	mov    0xc(%ebp),%ecx
f0002e1f:	8d 54 31 ff          	lea    0xffffffff(%ecx,%esi,1),%edx
f0002e23:	89 55 f0             	mov    %edx,0xfffffff0(%ebp)
f0002e26:	89 f2                	mov    %esi,%edx
f0002e28:	4a                   	dec    %edx
f0002e29:	39 55 f0             	cmp    %edx,0xfffffff0(%ebp)
f0002e2c:	73 0e                	jae    f0002e3c <vsnprintf+0x2c>
f0002e2e:	89 f0                	mov    %esi,%eax
f0002e30:	c7 45 f0 ff ff ff ff 	movl   $0xffffffff,0xfffffff0(%ebp)
f0002e37:	f7 d8                	neg    %eax
f0002e39:	89 45 0c             	mov    %eax,0xc(%ebp)
f0002e3c:	8b 4d 10             	mov    0x10(%ebp),%ecx
f0002e3f:	80 39 00             	cmpb   $0x0,(%ecx)
f0002e42:	74 21                	je     f0002e65 <vsnprintf+0x55>
f0002e44:	8a 01                	mov    (%ecx),%al
f0002e46:	3c 25                	cmp    $0x25,%al
f0002e48:	74 46                	je     f0002e90 <vsnprintf+0x80>
f0002e4a:	3b 75 f0             	cmp    0xfffffff0(%ebp),%esi
f0002e4d:	77 05                	ja     f0002e54 <vsnprintf+0x44>
f0002e4f:	88 06                	mov    %al,(%esi)
f0002e51:	8b 4d 10             	mov    0x10(%ebp),%ecx
f0002e54:	46                   	inc    %esi
f0002e55:	89 cf                	mov    %ecx,%edi
f0002e57:	8d 51 01             	lea    0x1(%ecx),%edx
f0002e5a:	89 55 10             	mov    %edx,0x10(%ebp)
f0002e5d:	89 d1                	mov    %edx,%ecx
f0002e5f:	80 7f 01 00          	cmpb   $0x0,0x1(%edi)
f0002e63:	75 df                	jne    f0002e44 <vsnprintf+0x34>
f0002e65:	3b 75 f0             	cmp    0xfffffff0(%ebp),%esi
f0002e68:	77 12                	ja     f0002e7c <vsnprintf+0x6c>
f0002e6a:	c6 06 00             	movb   $0x0,(%esi)
f0002e6d:	8b 5d 08             	mov    0x8(%ebp),%ebx
f0002e70:	8d 65 f4             	lea    0xfffffff4(%ebp),%esp
f0002e73:	29 de                	sub    %ebx,%esi
f0002e75:	5b                   	pop    %ebx
f0002e76:	89 f0                	mov    %esi,%eax
f0002e78:	5e                   	pop    %esi
f0002e79:	5f                   	pop    %edi
f0002e7a:	5d                   	pop    %ebp
f0002e7b:	c3                   	ret    
f0002e7c:	8b 4d 0c             	mov    0xc(%ebp),%ecx
f0002e7f:	85 c9                	test   %ecx,%ecx
f0002e81:	74 ea                	je     f0002e6d <vsnprintf+0x5d>
f0002e83:	8b 45 f0             	mov    0xfffffff0(%ebp),%eax
f0002e86:	c6 00 00             	movb   $0x0,(%eax)
f0002e89:	eb e2                	jmp    f0002e6d <vsnprintf+0x5d>
f0002e8b:	90                   	nop    
f0002e8c:	8d 74 26 00          	lea    0x0(%esi),%esi
f0002e90:	31 ff                	xor    %edi,%edi
f0002e92:	89 cb                	mov    %ecx,%ebx
f0002e94:	8d 51 01             	lea    0x1(%ecx),%edx
f0002e97:	89 55 10             	mov    %edx,0x10(%ebp)
f0002e9a:	89 d1                	mov    %edx,%ecx
f0002e9c:	0f be 43 01          	movsbl 0x1(%ebx),%eax
f0002ea0:	83 e8 20             	sub    $0x20,%eax
f0002ea3:	83 f8 10             	cmp    $0x10,%eax
f0002ea6:	77 28                	ja     f0002ed0 <vsnprintf+0xc0>
f0002ea8:	ff 24 85 58 44 00 f0 	jmp    *0xf0004458(,%eax,4)
f0002eaf:	90                   	nop    
f0002eb0:	83 cf 10             	or     $0x10,%edi
f0002eb3:	eb dd                	jmp    f0002e92 <vsnprintf+0x82>
f0002eb5:	83 cf 08             	or     $0x8,%edi
f0002eb8:	eb d8                	jmp    f0002e92 <vsnprintf+0x82>
f0002eba:	8d b6 00 00 00 00    	lea    0x0(%esi),%esi
f0002ec0:	83 cf 20             	or     $0x20,%edi
f0002ec3:	eb cd                	jmp    f0002e92 <vsnprintf+0x82>
f0002ec5:	83 cf 04             	or     $0x4,%edi
f0002ec8:	eb c8                	jmp    f0002e92 <vsnprintf+0x82>
f0002eca:	8d b6 00 00 00 00    	lea    0x0(%esi),%esi
f0002ed0:	c7 45 ec ff ff ff ff 	movl   $0xffffffff,0xffffffec(%ebp)
f0002ed7:	31 c0                	xor    %eax,%eax
f0002ed9:	8a 1a                	mov    (%edx),%bl
f0002edb:	88 d8                	mov    %bl,%al
f0002edd:	f6 80 00 49 00 f0 04 	testb  $0x4,0xf0004900(%eax)
f0002ee4:	0f 84 67 03 00 00    	je     f0003251 <vsnprintf+0x441>
f0002eea:	8d 5d 10             	lea    0x10(%ebp),%ebx
f0002eed:	31 c9                	xor    %ecx,%ecx
f0002eef:	90                   	nop    
f0002ef0:	8b 13                	mov    (%ebx),%edx
f0002ef2:	8d 0c 89             	lea    (%ecx,%ecx,4),%ecx
f0002ef5:	0f be 02             	movsbl (%edx),%eax
f0002ef8:	8d 4c 48 d0          	lea    0xffffffd0(%eax,%ecx,2),%ecx
f0002efc:	8d 42 01             	lea    0x1(%edx),%eax
f0002eff:	89 03                	mov    %eax,(%ebx)
f0002f01:	31 c0                	xor    %eax,%eax
f0002f03:	8a 42 01             	mov    0x1(%edx),%al
f0002f06:	f6 80 00 49 00 f0 04 	testb  $0x4,0xf0004900(%eax)
f0002f0d:	75 e1                	jne    f0002ef0 <vsnprintf+0xe0>
f0002f0f:	89 4d ec             	mov    %ecx,0xffffffec(%ebp)
f0002f12:	8b 4d 10             	mov    0x10(%ebp),%ecx
f0002f15:	c7 45 e8 ff ff ff ff 	movl   $0xffffffff,0xffffffe8(%ebp)
f0002f1c:	89 cb                	mov    %ecx,%ebx
f0002f1e:	80 39 2e             	cmpb   $0x2e,(%ecx)
f0002f21:	0f 84 b7 02 00 00    	je     f00031de <vsnprintf+0x3ce>
f0002f27:	8a 01                	mov    (%ecx),%al
f0002f29:	83 ca ff             	or     $0xffffffff,%edx
f0002f2c:	3c 68                	cmp    $0x68,%al
f0002f2e:	0f 84 7e 02 00 00    	je     f00031b2 <vsnprintf+0x3a2>
f0002f34:	3c 6c                	cmp    $0x6c,%al
f0002f36:	0f 84 76 02 00 00    	je     f00031b2 <vsnprintf+0x3a2>
f0002f3c:	3c 4c                	cmp    $0x4c,%al
f0002f3e:	0f 84 6e 02 00 00    	je     f00031b2 <vsnprintf+0x3a2>
f0002f44:	3c 5a                	cmp    $0x5a,%al
f0002f46:	0f 84 66 02 00 00    	je     f00031b2 <vsnprintf+0x3a2>
f0002f4c:	8d 74 26 00          	lea    0x0(%esi),%esi
f0002f50:	0f be 01             	movsbl (%ecx),%eax
f0002f53:	83 e8 25             	sub    $0x25,%eax
f0002f56:	bb 0a 00 00 00       	mov    $0xa,%ebx
f0002f5b:	83 f8 53             	cmp    $0x53,%eax
f0002f5e:	76 1f                	jbe    f0002f7f <vsnprintf+0x16f>
f0002f60:	3b 75 f0             	cmp    0xfffffff0(%ebp),%esi
f0002f63:	77 06                	ja     f0002f6b <vsnprintf+0x15b>
f0002f65:	c6 06 25             	movb   $0x25,(%esi)
f0002f68:	8b 4d 10             	mov    0x10(%ebp),%ecx
f0002f6b:	8a 01                	mov    (%ecx),%al
f0002f6d:	46                   	inc    %esi
f0002f6e:	84 c0                	test   %al,%al
f0002f70:	0f 85 d4 fe ff ff    	jne    f0002e4a <vsnprintf+0x3a>
f0002f76:	49                   	dec    %ecx
f0002f77:	89 4d 10             	mov    %ecx,0x10(%ebp)
f0002f7a:	e9 d6 fe ff ff       	jmp    f0002e55 <vsnprintf+0x45>
f0002f7f:	ff 24 85 9c 44 00 f0 	jmp    *0xf000449c(,%eax,4)
f0002f86:	83 e7 10             	and    $0x10,%edi
f0002f89:	75 25                	jne    f0002fb0 <vsnprintf+0x1a0>
f0002f8b:	8b 7d ec             	mov    0xffffffec(%ebp),%edi
f0002f8e:	4f                   	dec    %edi
f0002f8f:	89 7d ec             	mov    %edi,0xffffffec(%ebp)
f0002f92:	8b 4d ec             	mov    0xffffffec(%ebp),%ecx
f0002f95:	85 c9                	test   %ecx,%ecx
f0002f97:	7e 17                	jle    f0002fb0 <vsnprintf+0x1a0>
f0002f99:	3b 75 f0             	cmp    0xfffffff0(%ebp),%esi
f0002f9c:	77 03                	ja     f0002fa1 <vsnprintf+0x191>
f0002f9e:	c6 06 20             	movb   $0x20,(%esi)
f0002fa1:	8b 55 ec             	mov    0xffffffec(%ebp),%edx
f0002fa4:	46                   	inc    %esi
f0002fa5:	4a                   	dec    %edx
f0002fa6:	89 55 ec             	mov    %edx,0xffffffec(%ebp)
f0002fa9:	8b 45 ec             	mov    0xffffffec(%ebp),%eax
f0002fac:	85 c0                	test   %eax,%eax
f0002fae:	7f e9                	jg     f0002f99 <vsnprintf+0x189>
f0002fb0:	8b 5d 14             	mov    0x14(%ebp),%ebx
f0002fb3:	8b 4d 14             	mov    0x14(%ebp),%ecx
f0002fb6:	83 c1 04             	add    $0x4,%ecx
f0002fb9:	3b 75 f0             	cmp    0xfffffff0(%ebp),%esi
f0002fbc:	89 4d 14             	mov    %ecx,0x14(%ebp)
f0002fbf:	8a 03                	mov    (%ebx),%al
f0002fc1:	77 02                	ja     f0002fc5 <vsnprintf+0x1b5>
f0002fc3:	88 06                	mov    %al,(%esi)
f0002fc5:	8b 55 ec             	mov    0xffffffec(%ebp),%edx
f0002fc8:	46                   	inc    %esi
f0002fc9:	4a                   	dec    %edx
f0002fca:	89 55 ec             	mov    %edx,0xffffffec(%ebp)
f0002fcd:	8b 7d ec             	mov    0xffffffec(%ebp),%edi
f0002fd0:	85 ff                	test   %edi,%edi
f0002fd2:	7e 17                	jle    f0002feb <vsnprintf+0x1db>
f0002fd4:	3b 75 f0             	cmp    0xfffffff0(%ebp),%esi
f0002fd7:	77 03                	ja     f0002fdc <vsnprintf+0x1cc>
f0002fd9:	c6 06 20             	movb   $0x20,(%esi)
f0002fdc:	8b 5d ec             	mov    0xffffffec(%ebp),%ebx
f0002fdf:	46                   	inc    %esi
f0002fe0:	4b                   	dec    %ebx
f0002fe1:	89 5d ec             	mov    %ebx,0xffffffec(%ebp)
f0002fe4:	8b 45 ec             	mov    0xffffffec(%ebp),%eax
f0002fe7:	85 c0                	test   %eax,%eax
f0002fe9:	7f e9                	jg     f0002fd4 <vsnprintf+0x1c4>
f0002feb:	8b 4d 10             	mov    0x10(%ebp),%ecx
f0002fee:	e9 62 fe ff ff       	jmp    f0002e55 <vsnprintf+0x45>
f0002ff3:	3b 75 f0             	cmp    0xfffffff0(%ebp),%esi
f0002ff6:	0f 87 58 fe ff ff    	ja     f0002e54 <vsnprintf+0x44>
f0002ffc:	c6 06 25             	movb   $0x25,(%esi)
f0002fff:	e9 4d fe ff ff       	jmp    f0002e51 <vsnprintf+0x41>
f0003004:	83 cf 40             	or     $0x40,%edi
f0003007:	bb 10 00 00 00       	mov    $0x10,%ebx
f000300c:	83 fa 4c             	cmp    $0x4c,%edx
f000300f:	0f 84 85 00 00 00    	je     f000309a <vsnprintf+0x28a>
f0003015:	83 fa 6c             	cmp    $0x6c,%edx
f0003018:	74 0a                	je     f0003024 <vsnprintf+0x214>
f000301a:	83 fa 5a             	cmp    $0x5a,%edx
f000301d:	74 69                	je     f0003088 <vsnprintf+0x278>
f000301f:	83 fa 68             	cmp    $0x68,%edx
f0003022:	74 3c                	je     f0003060 <vsnprintf+0x250>
f0003024:	8b 4d 14             	mov    0x14(%ebp),%ecx
f0003027:	8b 45 14             	mov    0x14(%ebp),%eax
f000302a:	83 c0 04             	add    $0x4,%eax
f000302d:	8b 11                	mov    (%ecx),%edx
f000302f:	89 45 14             	mov    %eax,0x14(%ebp)
f0003032:	31 c9                	xor    %ecx,%ecx
f0003034:	f7 c7 02 00 00 00    	test   $0x2,%edi
f000303a:	74 07                	je     f0003043 <vsnprintf+0x233>
f000303c:	89 d0                	mov    %edx,%eax
f000303e:	89 c1                	mov    %eax,%ecx
f0003040:	c1 f9 1f             	sar    $0x1f,%ecx
f0003043:	57                   	push   %edi
f0003044:	8b 45 ec             	mov    0xffffffec(%ebp),%eax
f0003047:	8b 7d e8             	mov    0xffffffe8(%ebp),%edi
f000304a:	57                   	push   %edi
f000304b:	50                   	push   %eax
f000304c:	53                   	push   %ebx
f000304d:	51                   	push   %ecx
f000304e:	52                   	push   %edx
f000304f:	8b 5d f0             	mov    0xfffffff0(%ebp),%ebx
f0003052:	53                   	push   %ebx
f0003053:	56                   	push   %esi
f0003054:	e8 57 02 00 00       	call   f00032b0 <number>
f0003059:	83 c4 20             	add    $0x20,%esp
f000305c:	89 c6                	mov    %eax,%esi
f000305e:	eb 8b                	jmp    f0002feb <vsnprintf+0x1db>
f0003060:	8b 55 14             	mov    0x14(%ebp),%edx
f0003063:	8b 45 14             	mov    0x14(%ebp),%eax
f0003066:	83 c0 04             	add    $0x4,%eax
f0003069:	66 8b 0a             	mov    (%edx),%cx
f000306c:	89 45 14             	mov    %eax,0x14(%ebp)
f000306f:	89 ca                	mov    %ecx,%edx
f0003071:	31 c9                	xor    %ecx,%ecx
f0003073:	81 e2 ff ff 00 00    	and    $0xffff,%edx
f0003079:	f7 c7 02 00 00 00    	test   $0x2,%edi
f000307f:	74 c2                	je     f0003043 <vsnprintf+0x233>
f0003081:	0f bf d2             	movswl %dx,%edx
f0003084:	89 d1                	mov    %edx,%ecx
f0003086:	eb b8                	jmp    f0003040 <vsnprintf+0x230>
f0003088:	8b 4d 14             	mov    0x14(%ebp),%ecx
f000308b:	8b 45 14             	mov    0x14(%ebp),%eax
f000308e:	83 c0 04             	add    $0x4,%eax
f0003091:	8b 11                	mov    (%ecx),%edx
f0003093:	89 45 14             	mov    %eax,0x14(%ebp)
f0003096:	31 c9                	xor    %ecx,%ecx
f0003098:	eb a9                	jmp    f0003043 <vsnprintf+0x233>
f000309a:	8b 45 14             	mov    0x14(%ebp),%eax
f000309d:	8b 55 14             	mov    0x14(%ebp),%edx
f00030a0:	83 c2 08             	add    $0x8,%edx
f00030a3:	89 55 14             	mov    %edx,0x14(%ebp)
f00030a6:	8b 48 04             	mov    0x4(%eax),%ecx
f00030a9:	8b 10                	mov    (%eax),%edx
f00030ab:	eb 96                	jmp    f0003043 <vsnprintf+0x233>
f00030ad:	83 cf 02             	or     $0x2,%edi
f00030b0:	e9 57 ff ff ff       	jmp    f000300c <vsnprintf+0x1fc>
f00030b5:	8b 5d 14             	mov    0x14(%ebp),%ebx
f00030b8:	8b 55 14             	mov    0x14(%ebp),%edx
f00030bb:	83 c2 04             	add    $0x4,%edx
f00030be:	8b 45 08             	mov    0x8(%ebp),%eax
f00030c1:	89 55 14             	mov    %edx,0x14(%ebp)
f00030c4:	8b 3b                	mov    (%ebx),%edi
f00030c6:	89 f2                	mov    %esi,%edx
f00030c8:	29 c2                	sub    %eax,%edx
f00030ca:	89 17                	mov    %edx,(%edi)
f00030cc:	e9 84 fd ff ff       	jmp    f0002e55 <vsnprintf+0x45>
f00030d1:	bb 08 00 00 00       	mov    $0x8,%ebx
f00030d6:	e9 31 ff ff ff       	jmp    f000300c <vsnprintf+0x1fc>
f00030db:	83 7d ec ff          	cmpl   $0xffffffff,0xffffffec(%ebp)
f00030df:	74 22                	je     f0003103 <vsnprintf+0x2f3>
f00030e1:	57                   	push   %edi
f00030e2:	8b 4d e8             	mov    0xffffffe8(%ebp),%ecx
f00030e5:	8b 7d 14             	mov    0x14(%ebp),%edi
f00030e8:	8b 55 ec             	mov    0xffffffec(%ebp),%edx
f00030eb:	51                   	push   %ecx
f00030ec:	8b 45 14             	mov    0x14(%ebp),%eax
f00030ef:	52                   	push   %edx
f00030f0:	31 c9                	xor    %ecx,%ecx
f00030f2:	6a 10                	push   $0x10
f00030f4:	83 c0 04             	add    $0x4,%eax
f00030f7:	8b 1f                	mov    (%edi),%ebx
f00030f9:	89 45 14             	mov    %eax,0x14(%ebp)
f00030fc:	51                   	push   %ecx
f00030fd:	53                   	push   %ebx
f00030fe:	e9 4c ff ff ff       	jmp    f000304f <vsnprintf+0x23f>
f0003103:	c7 45 ec 08 00 00 00 	movl   $0x8,0xffffffec(%ebp)
f000310a:	83 cf 01             	or     $0x1,%edi
f000310d:	eb d2                	jmp    f00030e1 <vsnprintf+0x2d1>
f000310f:	8b 55 14             	mov    0x14(%ebp),%edx
f0003112:	8b 45 14             	mov    0x14(%ebp),%eax
f0003115:	83 c0 04             	add    $0x4,%eax
f0003118:	8b 0a                	mov    (%edx),%ecx
f000311a:	89 45 14             	mov    %eax,0x14(%ebp)
f000311d:	85 c9                	test   %ecx,%ecx
f000311f:	0f 84 83 00 00 00    	je     f00031a8 <vsnprintf+0x398>
f0003125:	8b 55 e8             	mov    0xffffffe8(%ebp),%edx
f0003128:	89 c8                	mov    %ecx,%eax
f000312a:	eb 06                	jmp    f0003132 <vsnprintf+0x322>
f000312c:	80 38 00             	cmpb   $0x0,(%eax)
f000312f:	74 07                	je     f0003138 <vsnprintf+0x328>
f0003131:	40                   	inc    %eax
f0003132:	4a                   	dec    %edx
f0003133:	83 fa ff             	cmp    $0xffffffff,%edx
f0003136:	75 f4                	jne    f000312c <vsnprintf+0x31c>
f0003138:	29 c8                	sub    %ecx,%eax
f000313a:	83 e7 10             	and    $0x10,%edi
f000313d:	89 c3                	mov    %eax,%ebx
f000313f:	75 25                	jne    f0003166 <vsnprintf+0x356>
f0003141:	8b 45 ec             	mov    0xffffffec(%ebp),%eax
f0003144:	8b 7d ec             	mov    0xffffffec(%ebp),%edi
f0003147:	48                   	dec    %eax
f0003148:	39 df                	cmp    %ebx,%edi
f000314a:	89 45 ec             	mov    %eax,0xffffffec(%ebp)
f000314d:	7e 17                	jle    f0003166 <vsnprintf+0x356>
f000314f:	3b 75 f0             	cmp    0xfffffff0(%ebp),%esi
f0003152:	77 03                	ja     f0003157 <vsnprintf+0x347>
f0003154:	c6 06 20             	movb   $0x20,(%esi)
f0003157:	8b 45 ec             	mov    0xffffffec(%ebp),%eax
f000315a:	8b 55 ec             	mov    0xffffffec(%ebp),%edx
f000315d:	48                   	dec    %eax
f000315e:	46                   	inc    %esi
f000315f:	89 45 ec             	mov    %eax,0xffffffec(%ebp)
f0003162:	39 da                	cmp    %ebx,%edx
f0003164:	7f e9                	jg     f000314f <vsnprintf+0x33f>
f0003166:	85 db                	test   %ebx,%ebx
f0003168:	7e 10                	jle    f000317a <vsnprintf+0x36a>
f000316a:	89 da                	mov    %ebx,%edx
f000316c:	3b 75 f0             	cmp    0xfffffff0(%ebp),%esi
f000316f:	77 04                	ja     f0003175 <vsnprintf+0x365>
f0003171:	8a 01                	mov    (%ecx),%al
f0003173:	88 06                	mov    %al,(%esi)
f0003175:	46                   	inc    %esi
f0003176:	41                   	inc    %ecx
f0003177:	4a                   	dec    %edx
f0003178:	75 f2                	jne    f000316c <vsnprintf+0x35c>
f000317a:	8b 7d ec             	mov    0xffffffec(%ebp),%edi
f000317d:	8b 4d ec             	mov    0xffffffec(%ebp),%ecx
f0003180:	4f                   	dec    %edi
f0003181:	39 d9                	cmp    %ebx,%ecx
f0003183:	89 7d ec             	mov    %edi,0xffffffec(%ebp)
f0003186:	0f 8e 5f fe ff ff    	jle    f0002feb <vsnprintf+0x1db>
f000318c:	3b 75 f0             	cmp    0xfffffff0(%ebp),%esi
f000318f:	77 03                	ja     f0003194 <vsnprintf+0x384>
f0003191:	c6 06 20             	movb   $0x20,(%esi)
f0003194:	8b 45 ec             	mov    0xffffffec(%ebp),%eax
f0003197:	8b 55 ec             	mov    0xffffffec(%ebp),%edx
f000319a:	48                   	dec    %eax
f000319b:	46                   	inc    %esi
f000319c:	89 45 ec             	mov    %eax,0xffffffec(%ebp)
f000319f:	39 da                	cmp    %ebx,%edx
f00031a1:	7f e9                	jg     f000318c <vsnprintf+0x37c>
f00031a3:	e9 43 fe ff ff       	jmp    f0002feb <vsnprintf+0x1db>
f00031a8:	b9 51 44 00 f0       	mov    $0xf0004451,%ecx
f00031ad:	e9 73 ff ff ff       	jmp    f0003125 <vsnprintf+0x315>
f00031b2:	0f be 11             	movsbl (%ecx),%edx
f00031b5:	89 c8                	mov    %ecx,%eax
f00031b7:	41                   	inc    %ecx
f00031b8:	89 4d 10             	mov    %ecx,0x10(%ebp)
f00031bb:	83 fa 6c             	cmp    $0x6c,%edx
f00031be:	0f 85 8c fd ff ff    	jne    f0002f50 <vsnprintf+0x140>
f00031c4:	80 78 01 6c          	cmpb   $0x6c,0x1(%eax)
f00031c8:	0f 85 82 fd ff ff    	jne    f0002f50 <vsnprintf+0x140>
f00031ce:	8d 48 02             	lea    0x2(%eax),%ecx
f00031d1:	ba 4c 00 00 00       	mov    $0x4c,%edx
f00031d6:	89 4d 10             	mov    %ecx,0x10(%ebp)
f00031d9:	e9 72 fd ff ff       	jmp    f0002f50 <vsnprintf+0x140>
f00031de:	41                   	inc    %ecx
f00031df:	31 c0                	xor    %eax,%eax
f00031e1:	89 4d 10             	mov    %ecx,0x10(%ebp)
f00031e4:	8a 53 01             	mov    0x1(%ebx),%dl
f00031e7:	88 d0                	mov    %dl,%al
f00031e9:	f6 80 00 49 00 f0 04 	testb  $0x4,0xf0004900(%eax)
f00031f0:	74 41                	je     f0003233 <vsnprintf+0x423>
f00031f2:	8d 5d 10             	lea    0x10(%ebp),%ebx
f00031f5:	31 c9                	xor    %ecx,%ecx
f00031f7:	8b 13                	mov    (%ebx),%edx
f00031f9:	8d 0c 89             	lea    (%ecx,%ecx,4),%ecx
f00031fc:	0f be 02             	movsbl (%edx),%eax
f00031ff:	8d 4c 48 d0          	lea    0xffffffd0(%eax,%ecx,2),%ecx
f0003203:	8d 42 01             	lea    0x1(%edx),%eax
f0003206:	89 03                	mov    %eax,(%ebx)
f0003208:	31 c0                	xor    %eax,%eax
f000320a:	8a 42 01             	mov    0x1(%edx),%al
f000320d:	f6 80 00 49 00 f0 04 	testb  $0x4,0xf0004900(%eax)
f0003214:	75 e1                	jne    f00031f7 <vsnprintf+0x3e7>
f0003216:	89 4d e8             	mov    %ecx,0xffffffe8(%ebp)
f0003219:	8b 4d 10             	mov    0x10(%ebp),%ecx
f000321c:	8b 55 e8             	mov    0xffffffe8(%ebp),%edx
f000321f:	85 d2                	test   %edx,%edx
f0003221:	0f 89 00 fd ff ff    	jns    f0002f27 <vsnprintf+0x117>
f0003227:	c7 45 e8 00 00 00 00 	movl   $0x0,0xffffffe8(%ebp)
f000322e:	e9 f4 fc ff ff       	jmp    f0002f27 <vsnprintf+0x117>
f0003233:	80 fa 2a             	cmp    $0x2a,%dl
f0003236:	75 ef                	jne    f0003227 <vsnprintf+0x417>
f0003238:	8d 4b 02             	lea    0x2(%ebx),%ecx
f000323b:	8b 45 14             	mov    0x14(%ebp),%eax
f000323e:	8b 5d 14             	mov    0x14(%ebp),%ebx
f0003241:	89 4d 10             	mov    %ecx,0x10(%ebp)
f0003244:	83 c3 04             	add    $0x4,%ebx
f0003247:	89 5d 14             	mov    %ebx,0x14(%ebp)
f000324a:	8b 18                	mov    (%eax),%ebx
f000324c:	89 5d e8             	mov    %ebx,0xffffffe8(%ebp)
f000324f:	eb cb                	jmp    f000321c <vsnprintf+0x40c>
f0003251:	80 fb 2a             	cmp    $0x2a,%bl
f0003254:	0f 85 bb fc ff ff    	jne    f0002f15 <vsnprintf+0x105>
f000325a:	8d 4a 01             	lea    0x1(%edx),%ecx
f000325d:	8b 45 14             	mov    0x14(%ebp),%eax
f0003260:	8b 55 14             	mov    0x14(%ebp),%edx
f0003263:	83 c0 04             	add    $0x4,%eax
f0003266:	89 45 14             	mov    %eax,0x14(%ebp)
f0003269:	89 4d 10             	mov    %ecx,0x10(%ebp)
f000326c:	8b 02                	mov    (%edx),%eax
f000326e:	89 45 ec             	mov    %eax,0xffffffec(%ebp)
f0003271:	85 c0                	test   %eax,%eax
f0003273:	0f 89 9c fc ff ff    	jns    f0002f15 <vsnprintf+0x105>
f0003279:	f7 d8                	neg    %eax
f000327b:	89 45 ec             	mov    %eax,0xffffffec(%ebp)
f000327e:	83 cf 10             	or     $0x10,%edi
f0003281:	e9 8f fc ff ff       	jmp    f0002f15 <vsnprintf+0x105>
f0003286:	83 cf 01             	or     $0x1,%edi
f0003289:	e9 04 fc ff ff       	jmp    f0002e92 <vsnprintf+0x82>
f000328e:	89 f6                	mov    %esi,%esi

f0003290 <snprintf>:
f0003290:	55                   	push   %ebp
f0003291:	89 e5                	mov    %esp,%ebp
f0003293:	50                   	push   %eax
f0003294:	50                   	push   %eax
f0003295:	8d 55 14             	lea    0x14(%ebp),%edx
f0003298:	8b 4d 10             	mov    0x10(%ebp),%ecx
f000329b:	52                   	push   %edx
f000329c:	8b 55 0c             	mov    0xc(%ebp),%edx
f000329f:	51                   	push   %ecx
f00032a0:	52                   	push   %edx
f00032a1:	8b 55 08             	mov    0x8(%ebp),%edx
f00032a4:	52                   	push   %edx
f00032a5:	e8 66 fb ff ff       	call   f0002e10 <vsnprintf>
f00032aa:	89 ec                	mov    %ebp,%esp
f00032ac:	5d                   	pop    %ebp
f00032ad:	c3                   	ret    
f00032ae:	89 f6                	mov    %esi,%esi

f00032b0 <number>:
f00032b0:	55                   	push   %ebp
f00032b1:	89 e5                	mov    %esp,%ebp
f00032b3:	57                   	push   %edi
f00032b4:	56                   	push   %esi
f00032b5:	53                   	push   %ebx
f00032b6:	81 ec dc 00 00 00    	sub    $0xdc,%esp
f00032bc:	8d bd 68 ff ff ff    	lea    0xffffff68(%ebp),%edi
f00032c2:	8b 75 10             	mov    0x10(%ebp),%esi
f00032c5:	8b 4d 14             	mov    0x14(%ebp),%ecx
f00032c8:	fc                   	cld    
f00032c9:	89 b5 30 ff ff ff    	mov    %esi,0xffffff30(%ebp)
f00032cf:	89 8d 34 ff ff ff    	mov    %ecx,0xffffff34(%ebp)
f00032d5:	be ec 45 00 f0       	mov    $0xf00045ec,%esi
f00032da:	b9 09 00 00 00       	mov    $0x9,%ecx
f00032df:	f3 a5                	repz movsl %ds:(%esi),%es:(%edi)
f00032e1:	8a 15 10 46 00 f0    	mov    0xf0004610,%dl
f00032e7:	be 14 46 00 f0       	mov    $0xf0004614,%esi
f00032ec:	88 17                	mov    %dl,(%edi)
f00032ee:	b9 09 00 00 00       	mov    $0x9,%ecx
f00032f3:	8d bd 38 ff ff ff    	lea    0xffffff38(%ebp),%edi
f00032f9:	8b 5d 08             	mov    0x8(%ebp),%ebx
f00032fc:	89 fa                	mov    %edi,%edx
f00032fe:	f3 a5                	repz movsl %ds:(%esi),%es:(%edi)
f0003300:	8a 0d 38 46 00 f0    	mov    0xf0004638,%cl
f0003306:	89 95 28 ff ff ff    	mov    %edx,0xffffff28(%ebp)
f000330c:	88 0f                	mov    %cl,(%edi)
f000330e:	f6 45 24 40          	testb  $0x40,0x24(%ebp)
f0003312:	75 0c                	jne    f0003320 <number+0x70>
f0003314:	8d bd 68 ff ff ff    	lea    0xffffff68(%ebp),%edi
f000331a:	89 bd 28 ff ff ff    	mov    %edi,0xffffff28(%ebp)
f0003320:	f6 45 24 10          	testb  $0x10,0x24(%ebp)
f0003324:	74 09                	je     f000332f <number+0x7f>
f0003326:	8b 55 24             	mov    0x24(%ebp),%edx
f0003329:	83 e2 fe             	and    $0xfffffffe,%edx
f000332c:	89 55 24             	mov    %edx,0x24(%ebp)
f000332f:	8b 4d 18             	mov    0x18(%ebp),%ecx
f0003332:	31 d2                	xor    %edx,%edx
f0003334:	83 e9 02             	sub    $0x2,%ecx
f0003337:	83 f9 22             	cmp    $0x22,%ecx
f000333a:	0f 87 70 01 00 00    	ja     f00034b0 <number+0x200>
f0003340:	c6 85 2f ff ff ff 30 	movb   $0x30,0xffffff2f(%ebp)
f0003347:	f6 45 24 01          	testb  $0x1,0x24(%ebp)
f000334b:	75 07                	jne    f0003354 <number+0xa4>
f000334d:	c6 85 2f ff ff ff 20 	movb   $0x20,0xffffff2f(%ebp)
f0003354:	c6 85 2e ff ff ff 00 	movb   $0x0,0xffffff2e(%ebp)
f000335b:	f6 45 24 02          	testb  $0x2,0x24(%ebp)
f000335f:	74 26                	je     f0003387 <number+0xd7>
f0003361:	8b b5 34 ff ff ff    	mov    0xffffff34(%ebp),%esi
f0003367:	85 f6                	test   %esi,%esi
f0003369:	0f 88 12 02 00 00    	js     f0003581 <number+0x2d1>
f000336f:	f6 45 24 04          	testb  $0x4,0x24(%ebp)
f0003373:	0f 84 f2 01 00 00    	je     f000356b <number+0x2bb>
f0003379:	c6 85 2e ff ff ff 2b 	movb   $0x2b,0xffffff2e(%ebp)
f0003380:	8b 7d 1c             	mov    0x1c(%ebp),%edi
f0003383:	4f                   	dec    %edi
f0003384:	89 7d 1c             	mov    %edi,0x1c(%ebp)
f0003387:	f6 45 24 20          	testb  $0x20,0x24(%ebp)
f000338b:	74 14                	je     f00033a1 <number+0xf1>
f000338d:	83 7d 18 10          	cmpl   $0x10,0x18(%ebp)
f0003391:	0f 84 c6 01 00 00    	je     f000355d <number+0x2ad>
f0003397:	83 7d 18 08          	cmpl   $0x8,0x18(%ebp)
f000339b:	0f 84 b0 01 00 00    	je     f0003551 <number+0x2a1>
f00033a1:	8b 85 34 ff ff ff    	mov    0xffffff34(%ebp),%eax
f00033a7:	31 f6                	xor    %esi,%esi
f00033a9:	0b 85 30 ff ff ff    	or     0xffffff30(%ebp),%eax
f00033af:	0f 85 31 01 00 00    	jne    f00034e6 <number+0x236>
f00033b5:	be 01 00 00 00       	mov    $0x1,%esi
f00033ba:	c6 45 98 30          	movb   $0x30,0xffffff98(%ebp)
f00033be:	3b 75 20             	cmp    0x20(%ebp),%esi
f00033c1:	7e 03                	jle    f00033c6 <number+0x116>
f00033c3:	89 75 20             	mov    %esi,0x20(%ebp)
f00033c6:	8b 4d 1c             	mov    0x1c(%ebp),%ecx
f00033c9:	8b 45 20             	mov    0x20(%ebp),%eax
f00033cc:	29 c1                	sub    %eax,%ecx
f00033ce:	f6 45 24 11          	testb  $0x11,0x24(%ebp)
f00033d2:	89 4d 1c             	mov    %ecx,0x1c(%ebp)
f00033d5:	75 25                	jne    f00033fc <number+0x14c>
f00033d7:	8b 4d 1c             	mov    0x1c(%ebp),%ecx
f00033da:	8b 55 1c             	mov    0x1c(%ebp),%edx
f00033dd:	49                   	dec    %ecx
f00033de:	85 d2                	test   %edx,%edx
f00033e0:	89 4d 1c             	mov    %ecx,0x1c(%ebp)
f00033e3:	7e 17                	jle    f00033fc <number+0x14c>
f00033e5:	3b 5d 0c             	cmp    0xc(%ebp),%ebx
f00033e8:	77 03                	ja     f00033ed <number+0x13d>
f00033ea:	c6 03 20             	movb   $0x20,(%ebx)
f00033ed:	8b 45 1c             	mov    0x1c(%ebp),%eax
f00033f0:	8b 7d 1c             	mov    0x1c(%ebp),%edi
f00033f3:	48                   	dec    %eax
f00033f4:	43                   	inc    %ebx
f00033f5:	89 45 1c             	mov    %eax,0x1c(%ebp)
f00033f8:	85 ff                	test   %edi,%edi
f00033fa:	7f e9                	jg     f00033e5 <number+0x135>
f00033fc:	80 bd 2e ff ff ff 00 	cmpb   $0x0,0xffffff2e(%ebp)
f0003403:	74 0e                	je     f0003413 <number+0x163>
f0003405:	3b 5d 0c             	cmp    0xc(%ebp),%ebx
f0003408:	77 08                	ja     f0003412 <number+0x162>
f000340a:	8a 95 2e ff ff ff    	mov    0xffffff2e(%ebp),%dl
f0003410:	88 13                	mov    %dl,(%ebx)
f0003412:	43                   	inc    %ebx
f0003413:	f6 45 24 20          	testb  $0x20,0x24(%ebp)
f0003417:	74 14                	je     f000342d <number+0x17d>
f0003419:	83 7d 18 08          	cmpl   $0x8,0x18(%ebp)
f000341d:	0f 84 b9 00 00 00    	je     f00034dc <number+0x22c>
f0003423:	83 7d 18 10          	cmpl   $0x10,0x18(%ebp)
f0003427:	0f 84 90 00 00 00    	je     f00034bd <number+0x20d>
f000342d:	f6 45 24 10          	testb  $0x10,0x24(%ebp)
f0003431:	75 2d                	jne    f0003460 <number+0x1b0>
f0003433:	8b 45 1c             	mov    0x1c(%ebp),%eax
f0003436:	8b 4d 1c             	mov    0x1c(%ebp),%ecx
f0003439:	48                   	dec    %eax
f000343a:	85 c9                	test   %ecx,%ecx
f000343c:	89 45 1c             	mov    %eax,0x1c(%ebp)
f000343f:	7e 1f                	jle    f0003460 <number+0x1b0>
f0003441:	3b 5d 0c             	cmp    0xc(%ebp),%ebx
f0003444:	77 08                	ja     f000344e <number+0x19e>
f0003446:	8a 95 2f ff ff ff    	mov    0xffffff2f(%ebp),%dl
f000344c:	88 13                	mov    %dl,(%ebx)
f000344e:	8b 45 1c             	mov    0x1c(%ebp),%eax
f0003451:	8b 4d 1c             	mov    0x1c(%ebp),%ecx
f0003454:	48                   	dec    %eax
f0003455:	43                   	inc    %ebx
f0003456:	89 45 1c             	mov    %eax,0x1c(%ebp)
f0003459:	85 c9                	test   %ecx,%ecx
f000345b:	7f e4                	jg     f0003441 <number+0x191>
f000345d:	8d 76 00             	lea    0x0(%esi),%esi
f0003460:	8b 55 20             	mov    0x20(%ebp),%edx
f0003463:	8b 7d 20             	mov    0x20(%ebp),%edi
f0003466:	4a                   	dec    %edx
f0003467:	39 f7                	cmp    %esi,%edi
f0003469:	89 55 20             	mov    %edx,0x20(%ebp)
f000346c:	7e 12                	jle    f0003480 <number+0x1d0>
f000346e:	3b 5d 0c             	cmp    0xc(%ebp),%ebx
f0003471:	77 03                	ja     f0003476 <number+0x1c6>
f0003473:	c6 03 30             	movb   $0x30,(%ebx)
f0003476:	43                   	inc    %ebx
f0003477:	eb e7                	jmp    f0003460 <number+0x1b0>
f0003479:	8d b4 26 00 00 00 00 	lea    0x0(%esi),%esi
f0003480:	89 f7                	mov    %esi,%edi
f0003482:	4e                   	dec    %esi
f0003483:	85 ff                	test   %edi,%edi
f0003485:	7e 0e                	jle    f0003495 <number+0x1e5>
f0003487:	3b 5d 0c             	cmp    0xc(%ebp),%ebx
f000348a:	77 06                	ja     f0003492 <number+0x1e2>
f000348c:	8a 4c 2e 98          	mov    0xffffff98(%esi,%ebp,1),%cl
f0003490:	88 0b                	mov    %cl,(%ebx)
f0003492:	43                   	inc    %ebx
f0003493:	eb eb                	jmp    f0003480 <number+0x1d0>
f0003495:	8b 45 1c             	mov    0x1c(%ebp),%eax
f0003498:	8b 75 1c             	mov    0x1c(%ebp),%esi
f000349b:	48                   	dec    %eax
f000349c:	85 f6                	test   %esi,%esi
f000349e:	89 45 1c             	mov    %eax,0x1c(%ebp)
f00034a1:	7e 0b                	jle    f00034ae <number+0x1fe>
f00034a3:	3b 5d 0c             	cmp    0xc(%ebp),%ebx
f00034a6:	77 03                	ja     f00034ab <number+0x1fb>
f00034a8:	c6 03 20             	movb   $0x20,(%ebx)
f00034ab:	43                   	inc    %ebx
f00034ac:	eb e7                	jmp    f0003495 <number+0x1e5>
f00034ae:	89 da                	mov    %ebx,%edx
f00034b0:	81 c4 dc 00 00 00    	add    $0xdc,%esp
f00034b6:	89 d0                	mov    %edx,%eax
f00034b8:	5b                   	pop    %ebx
f00034b9:	5e                   	pop    %esi
f00034ba:	5f                   	pop    %edi
f00034bb:	5d                   	pop    %ebp
f00034bc:	c3                   	ret    
f00034bd:	3b 5d 0c             	cmp    0xc(%ebp),%ebx
f00034c0:	77 03                	ja     f00034c5 <number+0x215>
f00034c2:	c6 03 30             	movb   $0x30,(%ebx)
f00034c5:	43                   	inc    %ebx
f00034c6:	3b 5d 0c             	cmp    0xc(%ebp),%ebx
f00034c9:	77 0b                	ja     f00034d6 <number+0x226>
f00034cb:	8b bd 28 ff ff ff    	mov    0xffffff28(%ebp),%edi
f00034d1:	8a 4f 21             	mov    0x21(%edi),%cl
f00034d4:	88 0b                	mov    %cl,(%ebx)
f00034d6:	43                   	inc    %ebx
f00034d7:	e9 51 ff ff ff       	jmp    f000342d <number+0x17d>
f00034dc:	3b 5d 0c             	cmp    0xc(%ebp),%ebx
f00034df:	77 f5                	ja     f00034d6 <number+0x226>
f00034e1:	c6 03 30             	movb   $0x30,(%ebx)
f00034e4:	eb f0                	jmp    f00034d6 <number+0x226>
f00034e6:	8b bd 34 ff ff ff    	mov    0xffffff34(%ebp),%edi
f00034ec:	0b bd 30 ff ff ff    	or     0xffffff30(%ebp),%edi
f00034f2:	0f 84 c6 fe ff ff    	je     f00033be <number+0x10e>
f00034f8:	8d 55 e8             	lea    0xffffffe8(%ebp),%edx
f00034fb:	8b 85 30 ff ff ff    	mov    0xffffff30(%ebp),%eax
f0003501:	8d 3c 32             	lea    (%edx,%esi,1),%edi
f0003504:	46                   	inc    %esi
f0003505:	8b 95 34 ff ff ff    	mov    0xffffff34(%ebp),%edx
f000350b:	85 d2                	test   %edx,%edx
f000350d:	89 d1                	mov    %edx,%ecx
f000350f:	89 85 24 ff ff ff    	mov    %eax,0xffffff24(%ebp)
f0003515:	74 09                	je     f0003520 <number+0x270>
f0003517:	89 d0                	mov    %edx,%eax
f0003519:	31 d2                	xor    %edx,%edx
f000351b:	f7 75 18             	divl   0x18(%ebp)
f000351e:	89 c1                	mov    %eax,%ecx
f0003520:	8b 85 24 ff ff ff    	mov    0xffffff24(%ebp),%eax
f0003526:	f7 75 18             	divl   0x18(%ebp)
f0003529:	89 95 20 ff ff ff    	mov    %edx,0xffffff20(%ebp)
f000352f:	89 ca                	mov    %ecx,%edx
f0003531:	8b 8d 20 ff ff ff    	mov    0xffffff20(%ebp),%ecx
f0003537:	89 95 34 ff ff ff    	mov    %edx,0xffffff34(%ebp)
f000353d:	8b 95 28 ff ff ff    	mov    0xffffff28(%ebp),%edx
f0003543:	89 85 30 ff ff ff    	mov    %eax,0xffffff30(%ebp)
f0003549:	8a 04 11             	mov    (%ecx,%edx,1),%al
f000354c:	88 47 b0             	mov    %al,0xffffffb0(%edi)
f000354f:	eb 95                	jmp    f00034e6 <number+0x236>
f0003551:	8b 4d 1c             	mov    0x1c(%ebp),%ecx
f0003554:	49                   	dec    %ecx
f0003555:	89 4d 1c             	mov    %ecx,0x1c(%ebp)
f0003558:	e9 44 fe ff ff       	jmp    f00033a1 <number+0xf1>
f000355d:	8b 55 1c             	mov    0x1c(%ebp),%edx
f0003560:	83 ea 02             	sub    $0x2,%edx
f0003563:	89 55 1c             	mov    %edx,0x1c(%ebp)
f0003566:	e9 36 fe ff ff       	jmp    f00033a1 <number+0xf1>
f000356b:	f6 45 24 08          	testb  $0x8,0x24(%ebp)
f000356f:	0f 84 12 fe ff ff    	je     f0003387 <number+0xd7>
f0003575:	c6 85 2e ff ff ff 20 	movb   $0x20,0xffffff2e(%ebp)
f000357c:	e9 ff fd ff ff       	jmp    f0003380 <number+0xd0>
f0003581:	f7 9d 30 ff ff ff    	negl   0xffffff30(%ebp)
f0003587:	83 95 34 ff ff ff 00 	adcl   $0x0,0xffffff34(%ebp)
f000358e:	c6 85 2e ff ff ff 2d 	movb   $0x2d,0xffffff2e(%ebp)
f0003595:	f7 9d 34 ff ff ff    	negl   0xffffff34(%ebp)
f000359b:	e9 e0 fd ff ff       	jmp    f0003380 <number+0xd0>

f00035a0 <__v_scanf>:
f00035a0:	55                   	push   %ebp
f00035a1:	89 e5                	mov    %esp,%ebp
f00035a3:	57                   	push   %edi
f00035a4:	56                   	push   %esi
f00035a5:	53                   	push   %ebx
f00035a6:	83 ec 58             	sub    $0x58,%esp
f00035a9:	c7 45 e0 01 00 00 00 	movl   $0x1,0xffffffe0(%ebp)
f00035b0:	8b 55 08             	mov    0x8(%ebp),%edx
f00035b3:	c7 45 e4 00 00 00 00 	movl   $0x0,0xffffffe4(%ebp)
f00035ba:	8b 7d 0c             	mov    0xc(%ebp),%edi
f00035bd:	8b 02                	mov    (%edx),%eax
f00035bf:	50                   	push   %eax
f00035c0:	ff 52 04             	call   *0x4(%edx)
f00035c3:	8a 17                	mov    (%edi),%dl
f00035c5:	83 c4 10             	add    $0x10,%esp
f00035c8:	89 c6                	mov    %eax,%esi
f00035ca:	84 d2                	test   %dl,%dl
f00035cc:	74 57                	je     f0003625 <__v_scanf+0x85>
f00035ce:	89 f6                	mov    %esi,%esi
f00035d0:	31 db                	xor    %ebx,%ebx
f00035d2:	47                   	inc    %edi
f00035d3:	88 d3                	mov    %dl,%bl
f00035d5:	83 fb 25             	cmp    $0x25,%ebx
f00035d8:	0f 87 aa 00 00 00    	ja     f0003688 <__v_scanf+0xe8>
f00035de:	ff 24 9d 48 46 00 f0 	jmp    *0xf0004648(,%ebx,4)
f00035e5:	8a 17                	mov    (%edi),%dl
f00035e7:	84 d2                	test   %dl,%dl
f00035e9:	74 25                	je     f0003610 <__v_scanf+0x70>
f00035eb:	31 c9                	xor    %ecx,%ecx
f00035ed:	88 d1                	mov    %dl,%cl
f00035ef:	f6 81 00 49 00 f0 20 	testb  $0x20,0xf0004900(%ecx)
f00035f6:	74 18                	je     f0003610 <__v_scanf+0x70>
f00035f8:	47                   	inc    %edi
f00035f9:	8a 17                	mov    (%edi),%dl
f00035fb:	84 d2                	test   %dl,%dl
f00035fd:	74 11                	je     f0003610 <__v_scanf+0x70>
f00035ff:	31 db                	xor    %ebx,%ebx
f0003601:	88 d3                	mov    %dl,%bl
f0003603:	f6 83 00 49 00 f0 20 	testb  $0x20,0xf0004900(%ebx)
f000360a:	75 ec                	jne    f00035f8 <__v_scanf+0x58>
f000360c:	8d 74 26 00          	lea    0x0(%esi),%esi
f0003610:	89 f1                	mov    %esi,%ecx
f0003612:	81 e1 ff 00 00 00    	and    $0xff,%ecx
f0003618:	f6 81 00 49 00 f0 20 	testb  $0x20,0xf0004900(%ecx)
f000361f:	75 2f                	jne    f0003650 <__v_scanf+0xb0>
f0003621:	84 d2                	test   %dl,%dl
f0003623:	75 ab                	jne    f00035d0 <__v_scanf+0x30>
f0003625:	85 f6                	test   %esi,%esi
f0003627:	78 17                	js     f0003640 <__v_scanf+0xa0>
f0003629:	8b 5d 08             	mov    0x8(%ebp),%ebx
f000362c:	51                   	push   %ecx
f000362d:	51                   	push   %ecx
f000362e:	8b 03                	mov    (%ebx),%eax
f0003630:	50                   	push   %eax
f0003631:	56                   	push   %esi
f0003632:	ff 53 08             	call   *0x8(%ebx)
f0003635:	8b 45 e4             	mov    0xffffffe4(%ebp),%eax
f0003638:	8d 65 f4             	lea    0xfffffff4(%ebp),%esp
f000363b:	5b                   	pop    %ebx
f000363c:	5e                   	pop    %esi
f000363d:	5f                   	pop    %edi
f000363e:	5d                   	pop    %ebp
f000363f:	c3                   	ret    
f0003640:	8b 7d e4             	mov    0xffffffe4(%ebp),%edi
f0003643:	83 c8 ff             	or     $0xffffffff,%eax
f0003646:	85 ff                	test   %edi,%edi
f0003648:	75 df                	jne    f0003629 <__v_scanf+0x89>
f000364a:	eb ec                	jmp    f0003638 <__v_scanf+0x98>
f000364c:	8d 74 26 00          	lea    0x0(%esi),%esi
f0003650:	8b 55 e0             	mov    0xffffffe0(%ebp),%edx
f0003653:	8b 5d 08             	mov    0x8(%ebp),%ebx
f0003656:	42                   	inc    %edx
f0003657:	83 ec 0c             	sub    $0xc,%esp
f000365a:	89 55 e0             	mov    %edx,0xffffffe0(%ebp)
f000365d:	8b 03                	mov    (%ebx),%eax
f000365f:	50                   	push   %eax
f0003660:	ff 53 04             	call   *0x4(%ebx)
f0003663:	88 c2                	mov    %al,%dl
f0003665:	83 c4 10             	add    $0x10,%esp
f0003668:	81 e2 ff 00 00 00    	and    $0xff,%edx
f000366e:	89 c6                	mov    %eax,%esi
f0003670:	f6 82 00 49 00 f0 20 	testb  $0x20,0xf0004900(%edx)
f0003677:	75 d7                	jne    f0003650 <__v_scanf+0xb0>
f0003679:	8d b4 26 00 00 00 00 	lea    0x0(%esi),%esi
f0003680:	8a 17                	mov    (%edi),%dl
f0003682:	eb 9d                	jmp    f0003621 <__v_scanf+0x81>
f0003684:	31 c0                	xor    %eax,%eax
f0003686:	eb b0                	jmp    f0003638 <__v_scanf+0x98>
f0003688:	89 f2                	mov    %esi,%edx
f000368a:	81 e2 ff 00 00 00    	and    $0xff,%edx
f0003690:	39 da                	cmp    %ebx,%edx
f0003692:	75 91                	jne    f0003625 <__v_scanf+0x85>
f0003694:	8b 55 e0             	mov    0xffffffe0(%ebp),%edx
f0003697:	8b 5d 08             	mov    0x8(%ebp),%ebx
f000369a:	83 ec 0c             	sub    $0xc,%esp
f000369d:	42                   	inc    %edx
f000369e:	8b 0b                	mov    (%ebx),%ecx
f00036a0:	89 55 e0             	mov    %edx,0xffffffe0(%ebp)
f00036a3:	51                   	push   %ecx
f00036a4:	ff 53 04             	call   *0x4(%ebx)
f00036a7:	83 c4 10             	add    $0x10,%esp
f00036aa:	89 c6                	mov    %eax,%esi
f00036ac:	eb d2                	jmp    f0003680 <__v_scanf+0xe0>
f00036ae:	89 f6                	mov    %esi,%esi
f00036b0:	c7 45 dc 00 00 00 00 	movl   $0x0,0xffffffdc(%ebp)
f00036b7:	c7 45 d8 ff ff ff ff 	movl   $0xffffffff,0xffffffd8(%ebp)
f00036be:	c6 45 d7 00          	movb   $0x0,0xffffffd7(%ebp)
f00036c2:	c6 45 d6 00          	movb   $0x0,0xffffffd6(%ebp)
f00036c6:	c6 45 d5 00          	movb   $0x0,0xffffffd5(%ebp)
f00036ca:	c6 45 d4 00          	movb   $0x0,0xffffffd4(%ebp)
f00036ce:	31 db                	xor    %ebx,%ebx
f00036d0:	8a 1f                	mov    (%edi),%bl
f00036d2:	47                   	inc    %edi
f00036d3:	83 fb 6e             	cmp    $0x6e,%ebx
f00036d6:	74 09                	je     f00036e1 <__v_scanf+0x141>
f00036d8:	83 fe ff             	cmp    $0xffffffff,%esi
f00036db:	0f 84 44 ff ff ff    	je     f0003625 <__v_scanf+0x85>
f00036e1:	83 fb 78             	cmp    $0x78,%ebx
f00036e4:	0f 87 3b ff ff ff    	ja     f0003625 <__v_scanf+0x85>
f00036ea:	ff 24 9d e0 46 00 f0 	jmp    *0xf00046e0(,%ebx,4)
f00036f1:	c6 45 d6 01          	movb   $0x1,0xffffffd6(%ebp)
f00036f5:	eb d7                	jmp    f00036ce <__v_scanf+0x12e>
f00036f7:	8d 4f ff             	lea    0xffffffff(%edi),%ecx
f00036fa:	8d 5d e8             	lea    0xffffffe8(%ebp),%ebx
f00036fd:	50                   	push   %eax
f00036fe:	6a 0a                	push   $0xa
f0003700:	53                   	push   %ebx
f0003701:	51                   	push   %ecx
f0003702:	e8 49 08 00 00       	call   f0003f50 <strtol>
f0003707:	8b 7d e8             	mov    0xffffffe8(%ebp),%edi
f000370a:	83 c4 10             	add    $0x10,%esp
f000370d:	89 45 d8             	mov    %eax,0xffffffd8(%ebp)
f0003710:	c6 45 d7 01          	movb   $0x1,0xffffffd7(%ebp)
f0003714:	eb b8                	jmp    f00036ce <__v_scanf+0x12e>
f0003716:	80 7d d6 00          	cmpb   $0x0,0xffffffd6(%ebp)
f000371a:	75 18                	jne    f0003734 <__v_scanf+0x194>
f000371c:	8b 5d 10             	mov    0x10(%ebp),%ebx
f000371f:	8b 45 10             	mov    0x10(%ebp),%eax
f0003722:	8b 4d e4             	mov    0xffffffe4(%ebp),%ecx
f0003725:	83 c0 04             	add    $0x4,%eax
f0003728:	8b 13                	mov    (%ebx),%edx
f000372a:	41                   	inc    %ecx
f000372b:	89 45 10             	mov    %eax,0x10(%ebp)
f000372e:	89 55 e8             	mov    %edx,0xffffffe8(%ebp)
f0003731:	89 4d e4             	mov    %ecx,0xffffffe4(%ebp)
f0003734:	80 7d d7 00          	cmpb   $0x0,0xffffffd7(%ebp)
f0003738:	75 07                	jne    f0003741 <__v_scanf+0x1a1>
f000373a:	c7 45 d8 01 00 00 00 	movl   $0x1,0xffffffd8(%ebp)
f0003741:	8b 4d d8             	mov    0xffffffd8(%ebp),%ecx
f0003744:	85 c9                	test   %ecx,%ecx
f0003746:	0f 84 34 ff ff ff    	je     f0003680 <__v_scanf+0xe0>
f000374c:	83 fe ff             	cmp    $0xffffffff,%esi
f000374f:	0f 84 2b ff ff ff    	je     f0003680 <__v_scanf+0xe0>
f0003755:	80 7d d6 00          	cmpb   $0x0,0xffffffd6(%ebp)
f0003759:	75 0e                	jne    f0003769 <__v_scanf+0x1c9>
f000375b:	8b 5d e8             	mov    0xffffffe8(%ebp),%ebx
f000375e:	89 f0                	mov    %esi,%eax
f0003760:	88 03                	mov    %al,(%ebx)
f0003762:	8b 55 e8             	mov    0xffffffe8(%ebp),%edx
f0003765:	42                   	inc    %edx
f0003766:	89 55 e8             	mov    %edx,0xffffffe8(%ebp)
f0003769:	8b 4d d8             	mov    0xffffffd8(%ebp),%ecx
f000376c:	8b 55 e0             	mov    0xffffffe0(%ebp),%edx
f000376f:	8b 5d 08             	mov    0x8(%ebp),%ebx
f0003772:	49                   	dec    %ecx
f0003773:	83 ec 0c             	sub    $0xc,%esp
f0003776:	42                   	inc    %edx
f0003777:	89 4d d8             	mov    %ecx,0xffffffd8(%ebp)
f000377a:	8b 03                	mov    (%ebx),%eax
f000377c:	89 55 e0             	mov    %edx,0xffffffe0(%ebp)
f000377f:	50                   	push   %eax
f0003780:	ff 53 04             	call   *0x4(%ebx)
f0003783:	8b 4d d8             	mov    0xffffffd8(%ebp),%ecx
f0003786:	83 c4 10             	add    $0x10,%esp
f0003789:	89 c6                	mov    %eax,%esi
f000378b:	85 c9                	test   %ecx,%ecx
f000378d:	0f 84 ed fe ff ff    	je     f0003680 <__v_scanf+0xe0>
f0003793:	83 f8 ff             	cmp    $0xffffffff,%eax
f0003796:	75 bd                	jne    f0003755 <__v_scanf+0x1b5>
f0003798:	e9 e3 fe ff ff       	jmp    f0003680 <__v_scanf+0xe0>
f000379d:	8b 55 dc             	mov    0xffffffdc(%ebp),%edx
f00037a0:	83 c2 02             	add    $0x2,%edx
f00037a3:	89 55 dc             	mov    %edx,0xffffffdc(%ebp)
f00037a6:	8b 4d dc             	mov    0xffffffdc(%ebp),%ecx
f00037a9:	83 c1 08             	add    $0x8,%ecx
f00037ac:	89 4d dc             	mov    %ecx,0xffffffdc(%ebp)
f00037af:	89 f2                	mov    %esi,%edx
f00037b1:	8b 4d e0             	mov    0xffffffe0(%ebp),%ecx
f00037b4:	81 e2 ff 00 00 00    	and    $0xff,%edx
f00037ba:	c7 45 d0 00 00 00 00 	movl   $0x0,0xffffffd0(%ebp)
f00037c1:	89 4d cc             	mov    %ecx,0xffffffcc(%ebp)
f00037c4:	c7 45 c8 00 00 00 00 	movl   $0x0,0xffffffc8(%ebp)
f00037cb:	f6 82 00 49 00 f0 20 	testb  $0x20,0xf0004900(%edx)
f00037d2:	0f 85 c8 01 00 00    	jne    f00039a0 <__v_scanf+0x400>
f00037d8:	83 fe 2d             	cmp    $0x2d,%esi
f00037db:	0f 84 98 01 00 00    	je     f0003979 <__v_scanf+0x3d9>
f00037e1:	83 fe 2b             	cmp    $0x2b,%esi
f00037e4:	0f 84 72 01 00 00    	je     f000395c <__v_scanf+0x3bc>
f00037ea:	80 7d d7 00          	cmpb   $0x0,0xffffffd7(%ebp)
f00037ee:	75 21                	jne    f0003811 <__v_scanf+0x271>
f00037f0:	83 7d dc 10          	cmpl   $0x10,0xffffffdc(%ebp)
f00037f4:	0f 84 57 01 00 00    	je     f0003951 <__v_scanf+0x3b1>
f00037fa:	8b 4d dc             	mov    0xffffffdc(%ebp),%ecx
f00037fd:	85 c9                	test   %ecx,%ecx
f00037ff:	75 10                	jne    f0003811 <__v_scanf+0x271>
f0003801:	c7 45 dc 0a 00 00 00 	movl   $0xa,0xffffffdc(%ebp)
f0003808:	83 fe 30             	cmp    $0x30,%esi
f000380b:	0f 84 f1 00 00 00    	je     f0003902 <__v_scanf+0x362>
f0003811:	8b 4d d8             	mov    0xffffffd8(%ebp),%ecx
f0003814:	85 c9                	test   %ecx,%ecx
f0003816:	74 66                	je     f000387e <__v_scanf+0x2de>
f0003818:	83 fe ff             	cmp    $0xffffffff,%esi
f000381b:	74 61                	je     f000387e <__v_scanf+0x2de>
f000381d:	8d 76 00             	lea    0x0(%esi),%esi
f0003820:	89 f0                	mov    %esi,%eax
f0003822:	25 ff 00 00 00       	and    $0xff,%eax
f0003827:	89 c2                	mov    %eax,%edx
f0003829:	83 ca 20             	or     $0x20,%edx
f000382c:	83 fa 60             	cmp    $0x60,%edx
f000382f:	0f 86 b9 00 00 00    	jbe    f00038ee <__v_scanf+0x34e>
f0003835:	8d 42 a9             	lea    0xffffffa9(%edx),%eax
f0003838:	3b 45 dc             	cmp    0xffffffdc(%ebp),%eax
f000383b:	73 41                	jae    f000387e <__v_scanf+0x2de>
f000383d:	8b 75 d0             	mov    0xffffffd0(%ebp),%esi
f0003840:	8b 55 dc             	mov    0xffffffdc(%ebp),%edx
f0003843:	0f af f2             	imul   %edx,%esi
f0003846:	3b 75 d0             	cmp    0xffffffd0(%ebp),%esi
f0003849:	8b 55 e0             	mov    0xffffffe0(%ebp),%edx
f000384c:	8d 0c 30             	lea    (%eax,%esi,1),%ecx
f000384f:	19 f6                	sbb    %esi,%esi
f0003851:	83 ec 0c             	sub    $0xc,%esp
f0003854:	09 ce                	or     %ecx,%esi
f0003856:	42                   	inc    %edx
f0003857:	8b 4d d8             	mov    0xffffffd8(%ebp),%ecx
f000385a:	89 75 d0             	mov    %esi,0xffffffd0(%ebp)
f000385d:	49                   	dec    %ecx
f000385e:	89 55 e0             	mov    %edx,0xffffffe0(%ebp)
f0003861:	89 4d d8             	mov    %ecx,0xffffffd8(%ebp)
f0003864:	8b 4d 08             	mov    0x8(%ebp),%ecx
f0003867:	8b 01                	mov    (%ecx),%eax
f0003869:	50                   	push   %eax
f000386a:	ff 51 04             	call   *0x4(%ecx)
f000386d:	8b 55 d8             	mov    0xffffffd8(%ebp),%edx
f0003870:	83 c4 10             	add    $0x10,%esp
f0003873:	89 c6                	mov    %eax,%esi
f0003875:	85 d2                	test   %edx,%edx
f0003877:	74 05                	je     f000387e <__v_scanf+0x2de>
f0003879:	83 f8 ff             	cmp    $0xffffffff,%eax
f000387c:	75 a2                	jne    f0003820 <__v_scanf+0x280>
f000387e:	83 cb 20             	or     $0x20,%ebx
f0003881:	83 fb 6f             	cmp    $0x6f,%ebx
f0003884:	77 11                	ja     f0003897 <__v_scanf+0x2f7>
f0003886:	8b 45 d0             	mov    0xffffffd0(%ebp),%eax
f0003889:	85 c0                	test   %eax,%eax
f000388b:	78 0a                	js     f0003897 <__v_scanf+0x2f7>
f000388d:	8b 5d c8             	mov    0xffffffc8(%ebp),%ebx
f0003890:	85 db                	test   %ebx,%ebx
f0003892:	74 03                	je     f0003897 <__v_scanf+0x2f7>
f0003894:	f7 5d d0             	negl   0xffffffd0(%ebp)
f0003897:	80 7d d6 00          	cmpb   $0x0,0xffffffd6(%ebp)
f000389b:	0f 85 df fd ff ff    	jne    f0003680 <__v_scanf+0xe0>
f00038a1:	80 7d d4 00          	cmpb   $0x0,0xffffffd4(%ebp)
f00038a5:	75 32                	jne    f00038d9 <__v_scanf+0x339>
f00038a7:	80 7d d5 00          	cmpb   $0x0,0xffffffd5(%ebp)
f00038ab:	74 2c                	je     f00038d9 <__v_scanf+0x339>
f00038ad:	8b 5d 10             	mov    0x10(%ebp),%ebx
f00038b0:	8b 45 10             	mov    0x10(%ebp),%eax
f00038b3:	83 c0 04             	add    $0x4,%eax
f00038b6:	8b 0b                	mov    (%ebx),%ecx
f00038b8:	89 45 10             	mov    %eax,0x10(%ebp)
f00038bb:	8b 5d d0             	mov    0xffffffd0(%ebp),%ebx
f00038be:	66 89 19             	mov    %bx,(%ecx)
f00038c1:	8b 4d e0             	mov    0xffffffe0(%ebp),%ecx
f00038c4:	39 4d cc             	cmp    %ecx,0xffffffcc(%ebp)
f00038c7:	0f 83 b3 fd ff ff    	jae    f0003680 <__v_scanf+0xe0>
f00038cd:	8b 45 e4             	mov    0xffffffe4(%ebp),%eax
f00038d0:	40                   	inc    %eax
f00038d1:	89 45 e4             	mov    %eax,0xffffffe4(%ebp)
f00038d4:	e9 a7 fd ff ff       	jmp    f0003680 <__v_scanf+0xe0>
f00038d9:	8b 55 10             	mov    0x10(%ebp),%edx
f00038dc:	8b 45 10             	mov    0x10(%ebp),%eax
f00038df:	83 c0 04             	add    $0x4,%eax
f00038e2:	8b 5d d0             	mov    0xffffffd0(%ebp),%ebx
f00038e5:	8b 0a                	mov    (%edx),%ecx
f00038e7:	89 45 10             	mov    %eax,0x10(%ebp)
f00038ea:	89 19                	mov    %ebx,(%ecx)
f00038ec:	eb d3                	jmp    f00038c1 <__v_scanf+0x321>
f00038ee:	ba ff 00 00 00       	mov    $0xff,%edx
f00038f3:	83 f8 39             	cmp    $0x39,%eax
f00038f6:	77 03                	ja     f00038fb <__v_scanf+0x35b>
f00038f8:	8d 50 d0             	lea    0xffffffd0(%eax),%edx
f00038fb:	89 d0                	mov    %edx,%eax
f00038fd:	e9 36 ff ff ff       	jmp    f0003838 <__v_scanf+0x298>
f0003902:	c7 45 dc 08 00 00 00 	movl   $0x8,0xffffffdc(%ebp)
f0003909:	8b 4d e0             	mov    0xffffffe0(%ebp),%ecx
f000390c:	8b 55 08             	mov    0x8(%ebp),%edx
f000390f:	83 ec 0c             	sub    $0xc,%esp
f0003912:	41                   	inc    %ecx
f0003913:	8b 02                	mov    (%edx),%eax
f0003915:	89 4d e0             	mov    %ecx,0xffffffe0(%ebp)
f0003918:	50                   	push   %eax
f0003919:	ff 52 04             	call   *0x4(%edx)
f000391c:	89 c6                	mov    %eax,%esi
f000391e:	83 c4 10             	add    $0x10,%esp
f0003921:	83 c8 20             	or     $0x20,%eax
f0003924:	83 f8 78             	cmp    $0x78,%eax
f0003927:	0f 85 e4 fe ff ff    	jne    f0003811 <__v_scanf+0x271>
f000392d:	8b 55 e0             	mov    0xffffffe0(%ebp),%edx
f0003930:	8b 4d 08             	mov    0x8(%ebp),%ecx
f0003933:	83 ec 0c             	sub    $0xc,%esp
f0003936:	42                   	inc    %edx
f0003937:	8b 01                	mov    (%ecx),%eax
f0003939:	89 55 e0             	mov    %edx,0xffffffe0(%ebp)
f000393c:	50                   	push   %eax
f000393d:	ff 51 04             	call   *0x4(%ecx)
f0003940:	c7 45 dc 10 00 00 00 	movl   $0x10,0xffffffdc(%ebp)
f0003947:	83 c4 10             	add    $0x10,%esp
f000394a:	89 c6                	mov    %eax,%esi
f000394c:	e9 c0 fe ff ff       	jmp    f0003811 <__v_scanf+0x271>
f0003951:	83 fe 30             	cmp    $0x30,%esi
f0003954:	0f 85 a0 fe ff ff    	jne    f00037fa <__v_scanf+0x25a>
f000395a:	eb ad                	jmp    f0003909 <__v_scanf+0x369>
f000395c:	8b 55 e0             	mov    0xffffffe0(%ebp),%edx
f000395f:	8b 4d 08             	mov    0x8(%ebp),%ecx
f0003962:	83 ec 0c             	sub    $0xc,%esp
f0003965:	42                   	inc    %edx
f0003966:	8b 01                	mov    (%ecx),%eax
f0003968:	89 55 e0             	mov    %edx,0xffffffe0(%ebp)
f000396b:	50                   	push   %eax
f000396c:	ff 51 04             	call   *0x4(%ecx)
f000396f:	83 c4 10             	add    $0x10,%esp
f0003972:	89 c6                	mov    %eax,%esi
f0003974:	e9 71 fe ff ff       	jmp    f00037ea <__v_scanf+0x24a>
f0003979:	8b 55 e0             	mov    0xffffffe0(%ebp),%edx
f000397c:	8b 4d 08             	mov    0x8(%ebp),%ecx
f000397f:	83 ec 0c             	sub    $0xc,%esp
f0003982:	42                   	inc    %edx
f0003983:	8b 01                	mov    (%ecx),%eax
f0003985:	89 55 e0             	mov    %edx,0xffffffe0(%ebp)
f0003988:	50                   	push   %eax
f0003989:	ff 51 04             	call   *0x4(%ecx)
f000398c:	c7 45 c8 01 00 00 00 	movl   $0x1,0xffffffc8(%ebp)
f0003993:	83 c4 10             	add    $0x10,%esp
f0003996:	89 c6                	mov    %eax,%esi
f0003998:	e9 44 fe ff ff       	jmp    f00037e1 <__v_scanf+0x241>
f000399d:	8d 76 00             	lea    0x0(%esi),%esi
f00039a0:	8b 55 e0             	mov    0xffffffe0(%ebp),%edx
f00039a3:	8b 75 08             	mov    0x8(%ebp),%esi
f00039a6:	42                   	inc    %edx
f00039a7:	83 ec 0c             	sub    $0xc,%esp
f00039aa:	8b 0e                	mov    (%esi),%ecx
f00039ac:	89 55 e0             	mov    %edx,0xffffffe0(%ebp)
f00039af:	51                   	push   %ecx
f00039b0:	ff 56 04             	call   *0x4(%esi)
f00039b3:	88 c2                	mov    %al,%dl
f00039b5:	83 c4 10             	add    $0x10,%esp
f00039b8:	81 e2 ff 00 00 00    	and    $0xff,%edx
f00039be:	89 c6                	mov    %eax,%esi
f00039c0:	f6 82 00 49 00 f0 20 	testb  $0x20,0xf0004900(%edx)
f00039c7:	75 d7                	jne    f00039a0 <__v_scanf+0x400>
f00039c9:	e9 0a fe ff ff       	jmp    f00037d8 <__v_scanf+0x238>
f00039ce:	89 f3                	mov    %esi,%ebx
f00039d0:	d9 ee                	fldz   
f00039d2:	81 e3 ff 00 00 00    	and    $0xff,%ebx
f00039d8:	dd 5d c0             	fstpl  0xffffffc0(%ebp)
f00039db:	f6 83 00 49 00 f0 20 	testb  $0x20,0xf0004900(%ebx)
f00039e2:	0f 85 5b 02 00 00    	jne    f0003c43 <__v_scanf+0x6a3>
f00039e8:	83 fe 2d             	cmp    $0x2d,%esi
f00039eb:	0f 84 35 02 00 00    	je     f0003c26 <__v_scanf+0x686>
f00039f1:	83 fe 2b             	cmp    $0x2b,%esi
f00039f4:	0f 84 0f 02 00 00    	je     f0003c09 <__v_scanf+0x669>
f00039fa:	89 f3                	mov    %esi,%ebx
f00039fc:	81 e3 ff 00 00 00    	and    $0xff,%ebx
f0003a02:	f6 83 00 49 00 f0 04 	testb  $0x4,0xf0004900(%ebx)
f0003a09:	0f 85 b3 01 00 00    	jne    f0003bc2 <__v_scanf+0x622>
f0003a0f:	83 fe 2e             	cmp    $0x2e,%esi
f0003a12:	0f 84 2a 01 00 00    	je     f0003b42 <__v_scanf+0x5a2>
f0003a18:	89 f2                	mov    %esi,%edx
f0003a1a:	83 ca 20             	or     $0x20,%edx
f0003a1d:	83 fa 65             	cmp    $0x65,%edx
f0003a20:	74 40                	je     f0003a62 <__v_scanf+0x4c2>
f0003a22:	80 7d d6 00          	cmpb   $0x0,0xffffffd6(%ebp)
f0003a26:	0f 85 a1 fe ff ff    	jne    f00038cd <__v_scanf+0x32d>
f0003a2c:	80 7d d4 00          	cmpb   $0x0,0xffffffd4(%ebp)
f0003a30:	74 18                	je     f0003a4a <__v_scanf+0x4aa>
f0003a32:	8b 4d 10             	mov    0x10(%ebp),%ecx
f0003a35:	8b 45 10             	mov    0x10(%ebp),%eax
f0003a38:	dd 45 c0             	fldl   0xffffffc0(%ebp)
f0003a3b:	8b 19                	mov    (%ecx),%ebx
f0003a3d:	83 c0 04             	add    $0x4,%eax
f0003a40:	89 45 10             	mov    %eax,0x10(%ebp)
f0003a43:	dd 1b                	fstpl  (%ebx)
f0003a45:	e9 83 fe ff ff       	jmp    f00038cd <__v_scanf+0x32d>
f0003a4a:	8b 5d 10             	mov    0x10(%ebp),%ebx
f0003a4d:	8b 45 10             	mov    0x10(%ebp),%eax
f0003a50:	dd 45 c0             	fldl   0xffffffc0(%ebp)
f0003a53:	8b 13                	mov    (%ebx),%edx
f0003a55:	83 c0 04             	add    $0x4,%eax
f0003a58:	89 45 10             	mov    %eax,0x10(%ebp)
f0003a5b:	d9 1a                	fstps  (%edx)
f0003a5d:	e9 6b fe ff ff       	jmp    f00038cd <__v_scanf+0x32d>
f0003a62:	d9 05 3c 46 00 f0    	flds   0xf000463c
f0003a68:	8b 55 e0             	mov    0xffffffe0(%ebp),%edx
f0003a6b:	8b 4d 08             	mov    0x8(%ebp),%ecx
f0003a6e:	83 ec 0c             	sub    $0xc,%esp
f0003a71:	42                   	inc    %edx
f0003a72:	dd 5d a8             	fstpl  0xffffffa8(%ebp)
f0003a75:	89 75 b4             	mov    %esi,0xffffffb4(%ebp)
f0003a78:	8b 01                	mov    (%ecx),%eax
f0003a7a:	89 55 e0             	mov    %edx,0xffffffe0(%ebp)
f0003a7d:	50                   	push   %eax
f0003a7e:	ff 51 04             	call   *0x4(%ecx)
f0003a81:	31 db                	xor    %ebx,%ebx
f0003a83:	83 c4 10             	add    $0x10,%esp
f0003a86:	89 c6                	mov    %eax,%esi
f0003a88:	83 f8 2d             	cmp    $0x2d,%eax
f0003a8b:	0f 84 a3 00 00 00    	je     f0003b34 <__v_scanf+0x594>
f0003a91:	83 f8 2b             	cmp    $0x2b,%eax
f0003a94:	74 28                	je     f0003abe <__v_scanf+0x51e>
f0003a96:	d9 ee                	fldz   
f0003a98:	83 f8 ff             	cmp    $0xffffffff,%eax
f0003a9b:	dd 5d c0             	fstpl  0xffffffc0(%ebp)
f0003a9e:	74 16                	je     f0003ab6 <__v_scanf+0x516>
f0003aa0:	8b 4d 08             	mov    0x8(%ebp),%ecx
f0003aa3:	8b 55 e0             	mov    0xffffffe0(%ebp),%edx
f0003aa6:	4a                   	dec    %edx
f0003aa7:	50                   	push   %eax
f0003aa8:	89 55 e0             	mov    %edx,0xffffffe0(%ebp)
f0003aab:	50                   	push   %eax
f0003aac:	8b 01                	mov    (%ecx),%eax
f0003aae:	50                   	push   %eax
f0003aaf:	56                   	push   %esi
f0003ab0:	ff 51 08             	call   *0x8(%ecx)
f0003ab3:	83 c4 10             	add    $0x10,%esp
f0003ab6:	8b 75 b4             	mov    0xffffffb4(%ebp),%esi
f0003ab9:	e9 64 ff ff ff       	jmp    f0003a22 <__v_scanf+0x482>
f0003abe:	8b 55 e0             	mov    0xffffffe0(%ebp),%edx
f0003ac1:	8b 4d 08             	mov    0x8(%ebp),%ecx
f0003ac4:	83 ec 0c             	sub    $0xc,%esp
f0003ac7:	42                   	inc    %edx
f0003ac8:	8b 01                	mov    (%ecx),%eax
f0003aca:	89 55 e0             	mov    %edx,0xffffffe0(%ebp)
f0003acd:	50                   	push   %eax
f0003ace:	ff 51 04             	call   *0x4(%ecx)
f0003ad1:	88 c1                	mov    %al,%cl
f0003ad3:	83 c4 10             	add    $0x10,%esp
f0003ad6:	81 e1 ff 00 00 00    	and    $0xff,%ecx
f0003adc:	89 c6                	mov    %eax,%esi
f0003ade:	f6 81 00 49 00 f0 04 	testb  $0x4,0xf0004900(%ecx)
f0003ae5:	0f 84 37 ff ff ff    	je     f0003a22 <__v_scanf+0x482>
f0003aeb:	8d 14 9b             	lea    (%ebx,%ebx,4),%edx
f0003aee:	8b 4d e0             	mov    0xffffffe0(%ebp),%ecx
f0003af1:	41                   	inc    %ecx
f0003af2:	83 ec 0c             	sub    $0xc,%esp
f0003af5:	8d 5c 56 d0          	lea    0xffffffd0(%esi,%edx,2),%ebx
f0003af9:	89 4d e0             	mov    %ecx,0xffffffe0(%ebp)
f0003afc:	8b 55 08             	mov    0x8(%ebp),%edx
f0003aff:	8b 02                	mov    (%edx),%eax
f0003b01:	50                   	push   %eax
f0003b02:	ff 52 04             	call   *0x4(%edx)
f0003b05:	88 c1                	mov    %al,%cl
f0003b07:	83 c4 10             	add    $0x10,%esp
f0003b0a:	81 e1 ff 00 00 00    	and    $0xff,%ecx
f0003b10:	89 c6                	mov    %eax,%esi
f0003b12:	f6 81 00 49 00 f0 04 	testb  $0x4,0xf0004900(%ecx)
f0003b19:	75 d0                	jne    f0003aeb <__v_scanf+0x54b>
f0003b1b:	85 db                	test   %ebx,%ebx
f0003b1d:	0f 84 ff fe ff ff    	je     f0003a22 <__v_scanf+0x482>
f0003b23:	dd 45 c0             	fldl   0xffffffc0(%ebp)
f0003b26:	dc 4d a8             	fmull  0xffffffa8(%ebp)
f0003b29:	4b                   	dec    %ebx
f0003b2a:	dd 5d c0             	fstpl  0xffffffc0(%ebp)
f0003b2d:	75 f4                	jne    f0003b23 <__v_scanf+0x583>
f0003b2f:	e9 ee fe ff ff       	jmp    f0003a22 <__v_scanf+0x482>
f0003b34:	dd 05 40 46 00 f0    	fldl   0xf0004640
f0003b3a:	dd 5d a8             	fstpl  0xffffffa8(%ebp)
f0003b3d:	e9 7c ff ff ff       	jmp    f0003abe <__v_scanf+0x51e>
f0003b42:	dd 05 40 46 00 f0    	fldl   0xf0004640
f0003b48:	8b 55 e0             	mov    0xffffffe0(%ebp),%edx
f0003b4b:	8b 5d 08             	mov    0x8(%ebp),%ebx
f0003b4e:	42                   	inc    %edx
f0003b4f:	83 ec 0c             	sub    $0xc,%esp
f0003b52:	dd 5d b8             	fstpl  0xffffffb8(%ebp)
f0003b55:	89 55 e0             	mov    %edx,0xffffffe0(%ebp)
f0003b58:	8b 03                	mov    (%ebx),%eax
f0003b5a:	50                   	push   %eax
f0003b5b:	ff 53 04             	call   *0x4(%ebx)
f0003b5e:	88 c2                	mov    %al,%dl
f0003b60:	83 c4 10             	add    $0x10,%esp
f0003b63:	81 e2 ff 00 00 00    	and    $0xff,%edx
f0003b69:	89 c6                	mov    %eax,%esi
f0003b6b:	f6 82 00 49 00 f0 04 	testb  $0x4,0xf0004900(%edx)
f0003b72:	0f 84 a0 fe ff ff    	je     f0003a18 <__v_scanf+0x478>
f0003b78:	8d 4e d0             	lea    0xffffffd0(%esi),%ecx
f0003b7b:	8b 5d e0             	mov    0xffffffe0(%ebp),%ebx
f0003b7e:	51                   	push   %ecx
f0003b7f:	8b 55 08             	mov    0x8(%ebp),%edx
f0003b82:	db 04 24             	fildl  (%esp)
f0003b85:	dc 4d b8             	fmull  0xffffffb8(%ebp)
f0003b88:	43                   	inc    %ebx
f0003b89:	83 ec 08             	sub    $0x8,%esp
f0003b8c:	8b 02                	mov    (%edx),%eax
f0003b8e:	89 5d e0             	mov    %ebx,0xffffffe0(%ebp)
f0003b91:	dc 45 c0             	faddl  0xffffffc0(%ebp)
f0003b94:	50                   	push   %eax
f0003b95:	dd 5d c0             	fstpl  0xffffffc0(%ebp)
f0003b98:	dd 45 b8             	fldl   0xffffffb8(%ebp)
f0003b9b:	d8 35 3c 46 00 f0    	fdivs  0xf000463c
f0003ba1:	dd 5d b8             	fstpl  0xffffffb8(%ebp)
f0003ba4:	ff 52 04             	call   *0x4(%edx)
f0003ba7:	83 c4 10             	add    $0x10,%esp
f0003baa:	88 c1                	mov    %al,%cl
f0003bac:	89 c6                	mov    %eax,%esi
f0003bae:	81 e1 ff 00 00 00    	and    $0xff,%ecx
f0003bb4:	f6 81 00 49 00 f0 04 	testb  $0x4,0xf0004900(%ecx)
f0003bbb:	75 bb                	jne    f0003b78 <__v_scanf+0x5d8>
f0003bbd:	e9 56 fe ff ff       	jmp    f0003a18 <__v_scanf+0x478>
f0003bc2:	dd 45 c0             	fldl   0xffffffc0(%ebp)
f0003bc5:	d8 0d 3c 46 00 f0    	fmuls  0xf000463c
f0003bcb:	8d 4e d0             	lea    0xffffffd0(%esi),%ecx
f0003bce:	51                   	push   %ecx
f0003bcf:	8b 5d e0             	mov    0xffffffe0(%ebp),%ebx
f0003bd2:	8b 55 08             	mov    0x8(%ebp),%edx
f0003bd5:	43                   	inc    %ebx
f0003bd6:	89 5d e0             	mov    %ebx,0xffffffe0(%ebp)
f0003bd9:	dd 5d c0             	fstpl  0xffffffc0(%ebp)
f0003bdc:	db 04 24             	fildl  (%esp)
f0003bdf:	dc 45 c0             	faddl  0xffffffc0(%ebp)
f0003be2:	83 ec 08             	sub    $0x8,%esp
f0003be5:	8b 02                	mov    (%edx),%eax
f0003be7:	50                   	push   %eax
f0003be8:	dd 5d c0             	fstpl  0xffffffc0(%ebp)
f0003beb:	ff 52 04             	call   *0x4(%edx)
f0003bee:	83 c4 10             	add    $0x10,%esp
f0003bf1:	88 c1                	mov    %al,%cl
f0003bf3:	89 c6                	mov    %eax,%esi
f0003bf5:	81 e1 ff 00 00 00    	and    $0xff,%ecx
f0003bfb:	f6 81 00 49 00 f0 04 	testb  $0x4,0xf0004900(%ecx)
f0003c02:	75 be                	jne    f0003bc2 <__v_scanf+0x622>
f0003c04:	e9 06 fe ff ff       	jmp    f0003a0f <__v_scanf+0x46f>
f0003c09:	8b 55 e0             	mov    0xffffffe0(%ebp),%edx
f0003c0c:	8b 75 08             	mov    0x8(%ebp),%esi
f0003c0f:	83 ec 0c             	sub    $0xc,%esp
f0003c12:	42                   	inc    %edx
f0003c13:	8b 0e                	mov    (%esi),%ecx
f0003c15:	89 55 e0             	mov    %edx,0xffffffe0(%ebp)
f0003c18:	51                   	push   %ecx
f0003c19:	ff 56 04             	call   *0x4(%esi)
f0003c1c:	83 c4 10             	add    $0x10,%esp
f0003c1f:	89 c6                	mov    %eax,%esi
f0003c21:	e9 d4 fd ff ff       	jmp    f00039fa <__v_scanf+0x45a>
f0003c26:	8b 45 e0             	mov    0xffffffe0(%ebp),%eax
f0003c29:	8b 55 08             	mov    0x8(%ebp),%edx
f0003c2c:	83 ec 0c             	sub    $0xc,%esp
f0003c2f:	40                   	inc    %eax
f0003c30:	8b 0a                	mov    (%edx),%ecx
f0003c32:	89 45 e0             	mov    %eax,0xffffffe0(%ebp)
f0003c35:	51                   	push   %ecx
f0003c36:	ff 52 04             	call   *0x4(%edx)
f0003c39:	83 c4 10             	add    $0x10,%esp
f0003c3c:	89 c6                	mov    %eax,%esi
f0003c3e:	e9 ae fd ff ff       	jmp    f00039f1 <__v_scanf+0x451>
f0003c43:	8b 5d e0             	mov    0xffffffe0(%ebp),%ebx
f0003c46:	8b 4d 08             	mov    0x8(%ebp),%ecx
f0003c49:	83 ec 0c             	sub    $0xc,%esp
f0003c4c:	43                   	inc    %ebx
f0003c4d:	8b 01                	mov    (%ecx),%eax
f0003c4f:	89 5d e0             	mov    %ebx,0xffffffe0(%ebp)
f0003c52:	50                   	push   %eax
f0003c53:	ff 51 04             	call   *0x4(%ecx)
f0003c56:	88 c2                	mov    %al,%dl
f0003c58:	83 c4 10             	add    $0x10,%esp
f0003c5b:	81 e2 ff 00 00 00    	and    $0xff,%edx
f0003c61:	89 c6                	mov    %eax,%esi
f0003c63:	f6 82 00 49 00 f0 20 	testb  $0x20,0xf0004900(%edx)
f0003c6a:	75 d7                	jne    f0003c43 <__v_scanf+0x6a3>
f0003c6c:	e9 77 fd ff ff       	jmp    f00039e8 <__v_scanf+0x448>
f0003c71:	c6 45 d5 01          	movb   $0x1,0xffffffd5(%ebp)
f0003c75:	e9 54 fa ff ff       	jmp    f00036ce <__v_scanf+0x12e>
f0003c7a:	c6 45 d4 01          	movb   $0x1,0xffffffd4(%ebp)
f0003c7e:	e9 4b fa ff ff       	jmp    f00036ce <__v_scanf+0x12e>
f0003c83:	80 7d d6 00          	cmpb   $0x0,0xffffffd6(%ebp)
f0003c87:	0f 85 f3 f9 ff ff    	jne    f0003680 <__v_scanf+0xe0>
f0003c8d:	8b 4d 10             	mov    0x10(%ebp),%ecx
f0003c90:	8b 45 10             	mov    0x10(%ebp),%eax
f0003c93:	8a 55 e0             	mov    0xffffffe0(%ebp),%dl
f0003c96:	83 c0 04             	add    $0x4,%eax
f0003c99:	8b 19                	mov    (%ecx),%ebx
f0003c9b:	4a                   	dec    %edx
f0003c9c:	89 5d e8             	mov    %ebx,0xffffffe8(%ebp)
f0003c9f:	89 45 10             	mov    %eax,0x10(%ebp)
f0003ca2:	88 13                	mov    %dl,(%ebx)
f0003ca4:	8b 4d e8             	mov    0xffffffe8(%ebp),%ecx
f0003ca7:	41                   	inc    %ecx
f0003ca8:	89 4d e8             	mov    %ecx,0xffffffe8(%ebp)
f0003cab:	e9 d0 f9 ff ff       	jmp    f0003680 <__v_scanf+0xe0>
f0003cb0:	80 7d d6 00          	cmpb   $0x0,0xffffffd6(%ebp)
f0003cb4:	75 11                	jne    f0003cc7 <__v_scanf+0x727>
f0003cb6:	8b 55 10             	mov    0x10(%ebp),%edx
f0003cb9:	8b 45 10             	mov    0x10(%ebp),%eax
f0003cbc:	83 c0 04             	add    $0x4,%eax
f0003cbf:	8b 1a                	mov    (%edx),%ebx
f0003cc1:	89 45 10             	mov    %eax,0x10(%ebp)
f0003cc4:	89 5d e8             	mov    %ebx,0xffffffe8(%ebp)
f0003cc7:	89 f1                	mov    %esi,%ecx
f0003cc9:	81 e1 ff 00 00 00    	and    $0xff,%ecx
f0003ccf:	f6 81 00 49 00 f0 20 	testb  $0x20,0xf0004900(%ecx)
f0003cd6:	0f 85 86 00 00 00    	jne    f0003d62 <__v_scanf+0x7c2>
f0003cdc:	8b 5d d8             	mov    0xffffffd8(%ebp),%ebx
f0003cdf:	85 db                	test   %ebx,%ebx
f0003ce1:	74 6a                	je     f0003d4d <__v_scanf+0x7ad>
f0003ce3:	83 fe ff             	cmp    $0xffffffff,%esi
f0003ce6:	74 65                	je     f0003d4d <__v_scanf+0x7ad>
f0003ce8:	89 f1                	mov    %esi,%ecx
f0003cea:	81 e1 ff 00 00 00    	and    $0xff,%ecx
f0003cf0:	f6 81 00 49 00 f0 20 	testb  $0x20,0xf0004900(%ecx)
f0003cf7:	75 54                	jne    f0003d4d <__v_scanf+0x7ad>
f0003cf9:	80 7d d6 00          	cmpb   $0x0,0xffffffd6(%ebp)
f0003cfd:	75 07                	jne    f0003d06 <__v_scanf+0x766>
f0003cff:	8b 5d e8             	mov    0xffffffe8(%ebp),%ebx
f0003d02:	89 f0                	mov    %esi,%eax
f0003d04:	88 03                	mov    %al,(%ebx)
f0003d06:	85 f6                	test   %esi,%esi
f0003d08:	74 43                	je     f0003d4d <__v_scanf+0x7ad>
f0003d0a:	8b 4d e8             	mov    0xffffffe8(%ebp),%ecx
f0003d0d:	8b 75 d8             	mov    0xffffffd8(%ebp),%esi
f0003d10:	41                   	inc    %ecx
f0003d11:	8b 55 e0             	mov    0xffffffe0(%ebp),%edx
f0003d14:	89 4d e8             	mov    %ecx,0xffffffe8(%ebp)
f0003d17:	42                   	inc    %edx
f0003d18:	8b 4d 08             	mov    0x8(%ebp),%ecx
f0003d1b:	83 ec 0c             	sub    $0xc,%esp
f0003d1e:	4e                   	dec    %esi
f0003d1f:	89 55 e0             	mov    %edx,0xffffffe0(%ebp)
f0003d22:	89 75 d8             	mov    %esi,0xffffffd8(%ebp)
f0003d25:	8b 19                	mov    (%ecx),%ebx
f0003d27:	53                   	push   %ebx
f0003d28:	ff 51 04             	call   *0x4(%ecx)
f0003d2b:	8b 55 d8             	mov    0xffffffd8(%ebp),%edx
f0003d2e:	83 c4 10             	add    $0x10,%esp
f0003d31:	89 c6                	mov    %eax,%esi
f0003d33:	85 d2                	test   %edx,%edx
f0003d35:	74 16                	je     f0003d4d <__v_scanf+0x7ad>
f0003d37:	83 f8 ff             	cmp    $0xffffffff,%eax
f0003d3a:	74 11                	je     f0003d4d <__v_scanf+0x7ad>
f0003d3c:	88 c3                	mov    %al,%bl
f0003d3e:	81 e3 ff 00 00 00    	and    $0xff,%ebx
f0003d44:	f6 83 00 49 00 f0 20 	testb  $0x20,0xf0004900(%ebx)
f0003d4b:	74 ac                	je     f0003cf9 <__v_scanf+0x759>
f0003d4d:	80 7d d6 00          	cmpb   $0x0,0xffffffd6(%ebp)
f0003d51:	0f 85 29 f9 ff ff    	jne    f0003680 <__v_scanf+0xe0>
f0003d57:	8b 55 e8             	mov    0xffffffe8(%ebp),%edx
f0003d5a:	c6 02 00             	movb   $0x0,(%edx)
f0003d5d:	e9 6b fb ff ff       	jmp    f00038cd <__v_scanf+0x32d>
f0003d62:	8b 55 e0             	mov    0xffffffe0(%ebp),%edx
f0003d65:	8b 4d 08             	mov    0x8(%ebp),%ecx
f0003d68:	83 ec 0c             	sub    $0xc,%esp
f0003d6b:	42                   	inc    %edx
f0003d6c:	8b 01                	mov    (%ecx),%eax
f0003d6e:	89 55 e0             	mov    %edx,0xffffffe0(%ebp)
f0003d71:	50                   	push   %eax
f0003d72:	ff 51 04             	call   *0x4(%ecx)
f0003d75:	88 c3                	mov    %al,%bl
f0003d77:	83 c4 10             	add    $0x10,%esp
f0003d7a:	81 e3 ff 00 00 00    	and    $0xff,%ebx
f0003d80:	89 c6                	mov    %eax,%esi
f0003d82:	f6 83 00 49 00 f0 20 	testb  $0x20,0xf0004900(%ebx)
f0003d89:	75 d7                	jne    f0003d62 <__v_scanf+0x7c2>
f0003d8b:	e9 4c ff ff ff       	jmp    f0003cdc <__v_scanf+0x73c>
f0003d90:	c7 45 dc 06 00 00 00 	movl   $0x6,0xffffffdc(%ebp)
f0003d97:	e9 01 fa ff ff       	jmp    f000379d <__v_scanf+0x1fd>
f0003d9c:	8d 74 26 00          	lea    0x0(%esi),%esi

f0003da0 <sscanf>:
f0003da0:	55                   	push   %ebp
f0003da1:	89 e5                	mov    %esp,%ebp
f0003da3:	83 ec 2c             	sub    $0x2c,%esp
f0003da6:	8b 55 08             	mov    0x8(%ebp),%edx
f0003da9:	8d 4d 10             	lea    0x10(%ebp),%ecx
f0003dac:	89 55 e4             	mov    %edx,0xffffffe4(%ebp)
f0003daf:	51                   	push   %ecx
f0003db0:	8d 55 e4             	lea    0xffffffe4(%ebp),%edx
f0003db3:	c7 45 ec 20 3e 00 f0 	movl   $0xf0003e20,0xffffffec(%ebp)
f0003dba:	89 55 e8             	mov    %edx,0xffffffe8(%ebp)
f0003dbd:	c7 45 f0 40 3e 00 f0 	movl   $0xf0003e40,0xfffffff0(%ebp)
f0003dc4:	8b 55 0c             	mov    0xc(%ebp),%edx
f0003dc7:	52                   	push   %edx
f0003dc8:	8d 55 e8             	lea    0xffffffe8(%ebp),%edx
f0003dcb:	52                   	push   %edx
f0003dcc:	e8 cf f7 ff ff       	call   f00035a0 <__v_scanf>
f0003dd1:	83 c4 10             	add    $0x10,%esp
f0003dd4:	89 ec                	mov    %ebp,%esp
f0003dd6:	5d                   	pop    %ebp
f0003dd7:	c3                   	ret    
f0003dd8:	90                   	nop    
f0003dd9:	8d b4 26 00 00 00 00 	lea    0x0(%esi),%esi

f0003de0 <vsscanf>:
f0003de0:	55                   	push   %ebp
f0003de1:	89 e5                	mov    %esp,%ebp
f0003de3:	83 ec 2c             	sub    $0x2c,%esp
f0003de6:	8b 4d 08             	mov    0x8(%ebp),%ecx
f0003de9:	8d 55 e4             	lea    0xffffffe4(%ebp),%edx
f0003dec:	89 4d e4             	mov    %ecx,0xffffffe4(%ebp)
f0003def:	89 55 e8             	mov    %edx,0xffffffe8(%ebp)
f0003df2:	8b 4d 10             	mov    0x10(%ebp),%ecx
f0003df5:	8b 55 0c             	mov    0xc(%ebp),%edx
f0003df8:	51                   	push   %ecx
f0003df9:	c7 45 ec 20 3e 00 f0 	movl   $0xf0003e20,0xffffffec(%ebp)
f0003e00:	52                   	push   %edx
f0003e01:	c7 45 f0 40 3e 00 f0 	movl   $0xf0003e40,0xfffffff0(%ebp)
f0003e08:	8d 55 e8             	lea    0xffffffe8(%ebp),%edx
f0003e0b:	52                   	push   %edx
f0003e0c:	e8 8f f7 ff ff       	call   f00035a0 <__v_scanf>
f0003e11:	89 ec                	mov    %ebp,%esp
f0003e13:	5d                   	pop    %ebp
f0003e14:	c3                   	ret    
f0003e15:	8d 74 26 00          	lea    0x0(%esi),%esi
f0003e19:	8d bc 27 00 00 00 00 	lea    0x0(%edi),%edi

f0003e20 <sgetc>:
f0003e20:	55                   	push   %ebp
f0003e21:	31 c0                	xor    %eax,%eax
f0003e23:	89 e5                	mov    %esp,%ebp
f0003e25:	8b 4d 08             	mov    0x8(%ebp),%ecx
f0003e28:	8b 11                	mov    (%ecx),%edx
f0003e2a:	8a 02                	mov    (%edx),%al
f0003e2c:	42                   	inc    %edx
f0003e2d:	89 11                	mov    %edx,(%ecx)
f0003e2f:	85 c0                	test   %eax,%eax
f0003e31:	0f 95 c1             	setne  %cl
f0003e34:	81 e1 ff 00 00 00    	and    $0xff,%ecx
f0003e3a:	5d                   	pop    %ebp
f0003e3b:	49                   	dec    %ecx
f0003e3c:	09 c8                	or     %ecx,%eax
f0003e3e:	c3                   	ret    
f0003e3f:	90                   	nop    

f0003e40 <sputc>:
f0003e40:	55                   	push   %ebp
f0003e41:	89 e5                	mov    %esp,%ebp
f0003e43:	8b 55 0c             	mov    0xc(%ebp),%edx
f0003e46:	8b 0a                	mov    (%edx),%ecx
f0003e48:	8d 41 ff             	lea    0xffffffff(%ecx),%eax
f0003e4b:	89 02                	mov    %eax,(%edx)
f0003e4d:	31 c0                	xor    %eax,%eax
f0003e4f:	8a 41 ff             	mov    0xffffffff(%ecx),%al
f0003e52:	3b 45 08             	cmp    0x8(%ebp),%eax
f0003e55:	5d                   	pop    %ebp
f0003e56:	0f 94 c1             	sete   %cl
f0003e59:	81 e1 ff 00 00 00    	and    $0xff,%ecx
f0003e5f:	49                   	dec    %ecx
f0003e60:	09 c8                	or     %ecx,%eax
f0003e62:	c3                   	ret    
	...

f0003e70 <strtoul>:
f0003e70:	55                   	push   %ebp
f0003e71:	31 c0                	xor    %eax,%eax
f0003e73:	89 e5                	mov    %esp,%ebp
f0003e75:	57                   	push   %edi
f0003e76:	56                   	push   %esi
f0003e77:	31 ff                	xor    %edi,%edi
f0003e79:	8b 4d 08             	mov    0x8(%ebp),%ecx
f0003e7c:	53                   	push   %ebx
f0003e7d:	8b 5d 10             	mov    0x10(%ebp),%ebx
f0003e80:	8a 11                	mov    (%ecx),%dl
f0003e82:	88 d0                	mov    %dl,%al
f0003e84:	f6 80 00 49 00 f0 20 	testb  $0x20,0xf0004900(%eax)
f0003e8b:	74 13                	je     f0003ea0 <strtoul+0x30>
f0003e8d:	8d 76 00             	lea    0x0(%esi),%esi
f0003e90:	41                   	inc    %ecx
f0003e91:	31 c0                	xor    %eax,%eax
f0003e93:	8a 11                	mov    (%ecx),%dl
f0003e95:	88 d0                	mov    %dl,%al
f0003e97:	f6 80 00 49 00 f0 20 	testb  $0x20,0xf0004900(%eax)
f0003e9e:	75 f0                	jne    f0003e90 <strtoul+0x20>
f0003ea0:	80 fa 2b             	cmp    $0x2b,%dl
f0003ea3:	0f 84 93 00 00 00    	je     f0003f3c <strtoul+0xcc>
f0003ea9:	83 fb 10             	cmp    $0x10,%ebx
f0003eac:	0f 84 7f 00 00 00    	je     f0003f31 <strtoul+0xc1>
f0003eb2:	85 db                	test   %ebx,%ebx
f0003eb4:	75 0a                	jne    f0003ec0 <strtoul+0x50>
f0003eb6:	bb 0a 00 00 00       	mov    $0xa,%ebx
f0003ebb:	80 fa 30             	cmp    $0x30,%dl
f0003ebe:	74 55                	je     f0003f15 <strtoul+0xa5>
f0003ec0:	84 d2                	test   %dl,%dl
f0003ec2:	74 3c                	je     f0003f00 <strtoul+0x90>
f0003ec4:	8d 42 a9             	lea    0xffffffa9(%edx),%eax
f0003ec7:	80 fa 60             	cmp    $0x60,%dl
f0003eca:	77 14                	ja     f0003ee0 <strtoul+0x70>
f0003ecc:	8d 42 c9             	lea    0xffffffc9(%edx),%eax
f0003ecf:	80 fa 40             	cmp    $0x40,%dl
f0003ed2:	77 0c                	ja     f0003ee0 <strtoul+0x70>
f0003ed4:	b0 ff                	mov    $0xff,%al
f0003ed6:	80 fa 39             	cmp    $0x39,%dl
f0003ed9:	77 05                	ja     f0003ee0 <strtoul+0x70>
f0003edb:	8d 42 d0             	lea    0xffffffd0(%edx),%eax
f0003ede:	89 f6                	mov    %esi,%esi
f0003ee0:	25 ff 00 00 00       	and    $0xff,%eax
f0003ee5:	39 d8                	cmp    %ebx,%eax
f0003ee7:	7d 17                	jge    f0003f00 <strtoul+0x90>
f0003ee9:	89 fa                	mov    %edi,%edx
f0003eeb:	31 f6                	xor    %esi,%esi
f0003eed:	0f af d3             	imul   %ebx,%edx
f0003ef0:	39 fa                	cmp    %edi,%edx
f0003ef2:	72 1a                	jb     f0003f0e <strtoul+0x9e>
f0003ef4:	41                   	inc    %ecx
f0003ef5:	8d 3c 10             	lea    (%eax,%edx,1),%edi
f0003ef8:	8a 01                	mov    (%ecx),%al
f0003efa:	88 c2                	mov    %al,%dl
f0003efc:	84 c0                	test   %al,%al
f0003efe:	75 c4                	jne    f0003ec4 <strtoul+0x54>
f0003f00:	8b 55 0c             	mov    0xc(%ebp),%edx
f0003f03:	85 d2                	test   %edx,%edx
f0003f05:	74 05                	je     f0003f0c <strtoul+0x9c>
f0003f07:	8b 55 0c             	mov    0xc(%ebp),%edx
f0003f0a:	89 0a                	mov    %ecx,(%edx)
f0003f0c:	89 fe                	mov    %edi,%esi
f0003f0e:	89 f0                	mov    %esi,%eax
f0003f10:	5b                   	pop    %ebx
f0003f11:	5e                   	pop    %esi
f0003f12:	5f                   	pop    %edi
f0003f13:	5d                   	pop    %ebp
f0003f14:	c3                   	ret    
f0003f15:	bb 08 00 00 00       	mov    $0x8,%ebx
f0003f1a:	8a 41 01             	mov    0x1(%ecx),%al
f0003f1d:	3c 78                	cmp    $0x78,%al
f0003f1f:	74 04                	je     f0003f25 <strtoul+0xb5>
f0003f21:	3c 58                	cmp    $0x58,%al
f0003f23:	75 9b                	jne    f0003ec0 <strtoul+0x50>
f0003f25:	83 c1 02             	add    $0x2,%ecx
f0003f28:	bb 10 00 00 00       	mov    $0x10,%ebx
f0003f2d:	8a 11                	mov    (%ecx),%dl
f0003f2f:	eb 8f                	jmp    f0003ec0 <strtoul+0x50>
f0003f31:	80 fa 30             	cmp    $0x30,%dl
f0003f34:	0f 85 78 ff ff ff    	jne    f0003eb2 <strtoul+0x42>
f0003f3a:	eb de                	jmp    f0003f1a <strtoul+0xaa>
f0003f3c:	41                   	inc    %ecx
f0003f3d:	8a 11                	mov    (%ecx),%dl
f0003f3f:	e9 65 ff ff ff       	jmp    f0003ea9 <strtoul+0x39>
f0003f44:	8d b6 00 00 00 00    	lea    0x0(%esi),%esi
f0003f4a:	8d bf 00 00 00 00    	lea    0x0(%edi),%edi

f0003f50 <strtol>:
f0003f50:	55                   	push   %ebp
f0003f51:	89 e5                	mov    %esp,%ebp
f0003f53:	53                   	push   %ebx
f0003f54:	50                   	push   %eax
f0003f55:	31 db                	xor    %ebx,%ebx
f0003f57:	8b 4d 08             	mov    0x8(%ebp),%ecx
f0003f5a:	31 c0                	xor    %eax,%eax
f0003f5c:	8a 11                	mov    (%ecx),%dl
f0003f5e:	88 d0                	mov    %dl,%al
f0003f60:	f6 80 00 49 00 f0 20 	testb  $0x20,0xf0004900(%eax)
f0003f67:	74 17                	je     f0003f80 <strtol+0x30>
f0003f69:	8d b4 26 00 00 00 00 	lea    0x0(%esi),%esi
f0003f70:	41                   	inc    %ecx
f0003f71:	31 c0                	xor    %eax,%eax
f0003f73:	8a 11                	mov    (%ecx),%dl
f0003f75:	88 d0                	mov    %dl,%al
f0003f77:	f6 80 00 49 00 f0 20 	testb  $0x20,0xf0004900(%eax)
f0003f7e:	75 f0                	jne    f0003f70 <strtol+0x20>
f0003f80:	80 fa 2d             	cmp    $0x2d,%dl
f0003f83:	74 37                	je     f0003fbc <strtol+0x6c>
f0003f85:	8b 55 10             	mov    0x10(%ebp),%edx
f0003f88:	50                   	push   %eax
f0003f89:	8b 45 0c             	mov    0xc(%ebp),%eax
f0003f8c:	52                   	push   %edx
f0003f8d:	50                   	push   %eax
f0003f8e:	51                   	push   %ecx
f0003f8f:	e8 dc fe ff ff       	call   f0003e70 <strtoul>
f0003f94:	83 c4 10             	add    $0x10,%esp
f0003f97:	85 c0                	test   %eax,%eax
f0003f99:	78 0b                	js     f0003fa6 <strtol+0x56>
f0003f9b:	85 db                	test   %ebx,%ebx
f0003f9d:	74 02                	je     f0003fa1 <strtol+0x51>
f0003f9f:	f7 d8                	neg    %eax
f0003fa1:	8b 5d fc             	mov    0xfffffffc(%ebp),%ebx
f0003fa4:	c9                   	leave  
f0003fa5:	c3                   	ret    
f0003fa6:	3d 00 00 00 80       	cmp    $0x80000000,%eax
f0003fab:	74 04                	je     f0003fb1 <strtol+0x61>
f0003fad:	31 c0                	xor    %eax,%eax
f0003faf:	eb f0                	jmp    f0003fa1 <strtol+0x51>
f0003fb1:	b8 00 00 00 80       	mov    $0x80000000,%eax
f0003fb6:	85 db                	test   %ebx,%ebx
f0003fb8:	75 e7                	jne    f0003fa1 <strtol+0x51>
f0003fba:	eb f1                	jmp    f0003fad <strtol+0x5d>
f0003fbc:	83 cb ff             	or     $0xffffffff,%ebx
f0003fbf:	41                   	inc    %ecx
f0003fc0:	eb c3                	jmp    f0003f85 <strtol+0x35>
Disassembly of section .rodata:

f0003fc8 <rodata>:
f0003fc8:	71 75                	jno    f000403f <rodata+0x77>
f0003fca:	69 65 74 00 53 74 61 	imul   $0x61745300,0x74(%ebp),%esp
f0003fd1:	72 74                	jb     f0004047 <rodata+0x7f>
f0003fd3:	69 6e 67 2e 2e 2e 0a 	imul   $0xa2e2e2e,0x67(%esi),%ebp
f0003fda:	00 4d 49             	add    %cl,0x49(%ebp)
f0003fdd:	43                   	inc    %ebx
f0003fde:	52                   	push   %edx
f0003fdf:	4f                   	dec    %edi
f0003fe0:	4b                   	dec    %ebx
f0003fe1:	45                   	inc    %ebp
f0003fe2:	52                   	push   %edx
f0003fe3:	4e                   	dec    %esi
f0003fe4:	45                   	inc    %ebp
f0003fe5:	4c                   	dec    %esp
f0003fe6:	00 4d 4d             	add    %cl,0x4d(%ebp)
f0003fe9:	00 00                	add    %al,(%eax)
f0003feb:	00 46 72             	add    %al,0x72(%esi)
f0003fee:	65 65 20 6d 65       	and    %ch,%gs:0x65(%ebp)
f0003ff3:	6d                   	insl   (%dx),%es:(%edi)
f0003ff4:	6f                   	outsl  %ds:(%esi),(%dx)
f0003ff5:	72 79                	jb     f0004070 <rodata+0xa8>
f0003ff7:	20 6f 66             	and    %ch,0x66(%edi)
f0003ffa:	20 25 6c 75 20 4b    	and    %ah,0x4b20756c
f0004000:	62 20                	bound  %esp,(%eax)
f0004002:	28 25 6c 75 20 50    	sub    %ah,0x5020756c
f0004008:	61                   	popa   
f0004009:	67                   	addr16
f000400a:	65                   	gs
f000400b:	73 29                	jae    f0004036 <rodata+0x6e>
f000400d:	0a 00                	or     (%eax),%al
f000400f:	4e                   	dec    %esi
f0004010:	6f                   	outsl  %ds:(%esi),(%dx)
f0004011:	20 68 61             	and    %ch,0x61(%eax)
f0004014:	6e                   	outsb  %ds:(%esi),(%dx)
f0004015:	64                   	fs
f0004016:	6c                   	insb   (%dx),%es:(%edi)
f0004017:	65                   	gs
f0004018:	72 20                	jb     f000403a <rodata+0x72>
f000401a:	66 6f                	outsw  %ds:(%esi),(%dx)
f000401c:	72 20                	jb     f000403e <rodata+0x76>
f000401e:	69 6e 74 65 72 72 75 	imul   $0x75727265,0x74(%esi),%ebp
f0004025:	70 74                	jo     f000409b <rodata+0xd3>
f0004027:	20 25 6c 75 0a 00    	and    %ah,0xa756c
f000402d:	49                   	dec    %ecx
f000402e:	4e                   	dec    %esi
f000402f:	54                   	push   %esp
f0004030:	45                   	inc    %ebp
f0004031:	52                   	push   %edx
f0004032:	52                   	push   %edx
f0004033:	55                   	push   %ebp
f0004034:	50                   	push   %eax
f0004035:	54                   	push   %esp
f0004036:	00 55 6e             	add    %dl,0x6e(%ebp)
f0004039:	68 61 6e 64 6c       	push   $0x6c646e61
f000403e:	65 64 20 69 6e       	and    %ch,%fs:%gs:0x6e(%ecx)
f0004043:	74 65                	je     f00040aa <rodata+0xe2>
f0004045:	72 72                	jb     f00040b9 <rodata+0xf1>
f0004047:	75 70                	jne    f00040b9 <rodata+0xf1>
f0004049:	74 20                	je     f000406b <rodata+0xa3>
f000404b:	25 6c 75 0a 00       	and    $0xa756c,%eax
f0004050:	4b                   	dec    %ebx
f0004051:	65                   	gs
f0004052:	72 6e                	jb     f00040c2 <rodata+0xfa>
f0004054:	65                   	gs
f0004055:	6c                   	insb   (%dx),%es:(%edi)
f0004056:	20 65 6e             	and    %ah,0x6e(%ebp)
f0004059:	64                   	fs
f000405a:	73 20                	jae    f000407c <rodata+0xb4>
f000405c:	61                   	popa   
f000405d:	74 20                	je     f000407f <rodata+0xb7>
f000405f:	30 78 25             	xor    %bh,0x25(%eax)
f0004062:	58                   	pop    %eax
f0004063:	0a 00                	or     (%eax),%al
f0004065:	4b                   	dec    %ebx
f0004066:	65                   	gs
f0004067:	72 6e                	jb     f00040d7 <rodata+0x10f>
f0004069:	65                   	gs
f000406a:	6c                   	insb   (%dx),%es:(%edi)
f000406b:	20 68 65             	and    %ch,0x65(%eax)
f000406e:	61                   	popa   
f000406f:	70 20                	jo     f0004091 <rodata+0xc9>
f0004071:	66                   	data16
f0004072:	72 6f                	jb     f00040e3 <rodata+0x11b>
f0004074:	6d                   	insl   (%dx),%es:(%edi)
f0004075:	20 30                	and    %dh,(%eax)
f0004077:	78 25                	js     f000409e <rodata+0xd6>
f0004079:	58                   	pop    %eax
f000407a:	20 2d 20 30 78 25    	and    %ch,0x25783020
f0004080:	58                   	pop    %eax
f0004081:	0a 00                	or     (%eax),%al
f0004083:	00 53 69             	add    %dl,0x69(%ebx)
f0004086:	7a 65                	jp     f00040ed <rodata+0x125>
f0004088:	20 6f 66             	and    %ch,0x66(%edi)
f000408b:	20 6d 65             	and    %ch,0x65(%ebp)
f000408e:	6d                   	insl   (%dx),%es:(%edi)
f000408f:	6f                   	outsl  %ds:(%esi),(%dx)
f0004090:	72 79                	jb     f000410b <rodata+0x143>
f0004092:	20 69 73             	and    %ch,0x73(%ecx)
f0004095:	20 25 6c 75 20 4b    	and    %ah,0x4b20756c
f000409b:	62 20                	bound  %esp,(%eax)
f000409d:	28 25 6c 75 20 50    	sub    %ah,0x5020756c
f00040a3:	61                   	popa   
f00040a4:	67                   	addr16
f00040a5:	65                   	gs
f00040a6:	73 29                	jae    f00040d1 <rodata+0x109>
f00040a8:	0a 00                	or     (%eax),%al
f00040aa:	00 00                	add    %al,(%eax)
f00040ac:	46                   	inc    %esi
f00040ad:	72 65                	jb     f0004114 <rodata+0x14c>
f00040af:	65 20 70 61          	and    %dh,%gs:0x61(%eax)
f00040b3:	67 65 20 73 74       	addr16 and %dh,%gs:116(%bp,%di)
f00040b8:	61                   	popa   
f00040b9:	63 6b 20             	arpl   %bp,0x20(%ebx)
f00040bc:	66                   	data16
f00040bd:	72 6f                	jb     f000412e <rodata+0x166>
f00040bf:	6d                   	insl   (%dx),%es:(%edi)
f00040c0:	20 30                	and    %dh,(%eax)
f00040c2:	78 25                	js     f00040e9 <rodata+0x121>
f00040c4:	58                   	pop    %eax
f00040c5:	20 2d 20 30 78 25    	and    %ch,0x25783020
f00040cb:	58                   	pop    %eax
f00040cc:	0a 00                	or     (%eax),%al
f00040ce:	00 00                	add    %al,(%eax)
f00040d0:	20 20                	and    %ah,(%eax)
f00040d2:	2d 3e 20 53 69       	sub    $0x6953203e,%eax
f00040d7:	7a 65                	jp     f000413e <rodata+0x176>
f00040d9:	20 69 73             	and    %ch,0x73(%ecx)
f00040dc:	20 25 6c 75 20 4b    	and    %ah,0x4b20756c
f00040e2:	62 20                	bound  %esp,(%eax)
f00040e4:	28 25 6c 75 20 50    	sub    %ah,0x5020756c
f00040ea:	61                   	popa   
f00040eb:	67                   	addr16
f00040ec:	65                   	gs
f00040ed:	73 29                	jae    f0004118 <rodata+0x150>
f00040ef:	0a 00                	or     (%eax),%al
f00040f1:	00 00                	add    %al,(%eax)
f00040f3:	00 50 68             	add    %dl,0x68(%eax)
f00040f6:	79 73                	jns    f000416b <rodata+0x1a3>
f00040f8:	69 63 61 6c 20 6d 65 	imul   $0x656d206c,0x61(%ebx),%esp
f00040ff:	6d                   	insl   (%dx),%es:(%edi)
f0004100:	6f                   	outsl  %ds:(%esi),(%dx)
f0004101:	72 79                	jb     f000417c <rodata+0x1b4>
f0004103:	20 6d 61             	and    %ch,0x61(%ebp)
f0004106:	70 20                	jo     f0004128 <rodata+0x160>
f0004108:	61                   	popa   
f0004109:	72 65                	jb     f0004170 <rodata+0x1a8>
f000410b:	61                   	popa   
f000410c:	20 66 72             	and    %ah,0x72(%esi)
f000410f:	6f                   	outsl  %ds:(%esi),(%dx)
f0004110:	6d                   	insl   (%dx),%es:(%edi)
f0004111:	20 30                	and    %dh,(%eax)
f0004113:	78 25                	js     f000413a <rodata+0x172>
f0004115:	58                   	pop    %eax
f0004116:	20 2d 20 30 78 25    	and    %ch,0x25783020
f000411c:	58                   	pop    %eax
f000411d:	0a 00                	or     (%eax),%al
f000411f:	00 20                	add    %ah,(%eax)
f0004121:	20 2d 3e 20 53 69    	and    %ch,0x6953203e
f0004127:	7a 65                	jp     f000418e <rodata+0x1c6>
f0004129:	20 69 73             	and    %ch,0x73(%ecx)
f000412c:	20 25 6c 75 20 4b    	and    %ah,0x4b20756c
f0004132:	42                   	inc    %edx
f0004133:	20 28                	and    %ch,(%eax)
f0004135:	25 6c 75 20 50       	and    $0x5020756c,%eax
f000413a:	61                   	popa   
f000413b:	67                   	addr16
f000413c:	65                   	gs
f000413d:	73 29                	jae    f0004168 <rodata+0x1a0>
f000413f:	0a 00                	or     (%eax),%al
f0004141:	00 00                	add    %al,(%eax)
f0004143:	00 52 41             	add    %dl,0x41(%edx)
f0004146:	4d                   	dec    %ebp
f0004147:	20 61 74             	and    %ah,0x74(%ecx)
f000414a:	20 30                	and    %dh,(%eax)
f000414c:	78 25                	js     f0004173 <rodata+0x1ab>
f000414e:	58                   	pop    %eax
f000414f:	2c 20                	sub    $0x20,%al
f0004151:	25 6c 75 20 4b       	and    $0x4b20756c,%eax
f0004156:	62 20                	bound  %esp,(%eax)
f0004158:	28 25 6c 75 20 50    	sub    %ah,0x5020756c
f000415e:	61                   	popa   
f000415f:	67                   	addr16
f0004160:	65                   	gs
f0004161:	73 29                	jae    f000418c <rodata+0x1c4>
f0004163:	0a 00                	or     (%eax),%al
f0004165:	00 00                	add    %al,(%eax)
f0004167:	00 52 41             	add    %dl,0x41(%edx)
f000416a:	4d                   	dec    %ebp
f000416b:	20 61 74             	and    %ah,0x74(%ecx)
f000416e:	20 30                	and    %dh,(%eax)
f0004170:	78 25                	js     f0004197 <rodata+0x1cf>
f0004172:	58                   	pop    %eax
f0004173:	2c 20                	sub    $0x20,%al
f0004175:	25 6c 75 20 4b       	and    $0x4b20756c,%eax
f000417a:	62 20                	bound  %esp,(%eax)
f000417c:	28 25 6c 75 20 50    	sub    %ah,0x5020756c
f0004182:	61                   	popa   
f0004183:	67                   	addr16
f0004184:	65                   	gs
f0004185:	73 29                	jae    f00041b0 <rodata+0x1e8>
f0004187:	2c 20                	sub    $0x20,%al
f0004189:	6e                   	outsb  %ds:(%esi),(%dx)
f000418a:	6f                   	outsl  %ds:(%esi),(%dx)
f000418b:	74 20                	je     f00041ad <rodata+0x1e5>
f000418d:	6f                   	outsl  %ds:(%esi),(%dx)
f000418e:	6e                   	outsb  %ds:(%esi),(%dx)
f000418f:	20 70 61             	and    %dh,0x61(%eax)
f0004192:	67 65 20 62 6f       	addr16 and %ah,%gs:111(%bp,%si)
f0004197:	75 6e                	jne    f0004207 <rodata+0x23f>
f0004199:	64                   	fs
f000419a:	61                   	popa   
f000419b:	72 79                	jb     f0004216 <rodata+0x24e>
f000419d:	2e 20 48 61          	and    %cl,%cs:0x61(%eax)
f00041a1:	6c                   	insb   (%dx),%es:(%edi)
f00041a2:	74 69                	je     f000420d <rodata+0x245>
f00041a4:	6e                   	outsb  %ds:(%esi),(%dx)
f00041a5:	67 0a 00             	addr16 or (%bx,%si),%al
f00041a8:	46                   	inc    %esi
f00041a9:	41                   	inc    %ecx
f00041aa:	54                   	push   %esp
f00041ab:	41                   	inc    %ecx
f00041ac:	4c                   	dec    %esp
f00041ad:	3a 20                	cmp    (%eax),%ah
f00041af:	4e                   	dec    %esi
f00041b0:	6f                   	outsl  %ds:(%esi),(%dx)
f00041b1:	20 6d 75             	and    %ch,0x75(%ebp)
f00041b4:	6c                   	insb   (%dx),%es:(%edi)
f00041b5:	74 69                	je     f0004220 <rodata+0x258>
f00041b7:	62 6f 6f             	bound  %ebp,0x6f(%edi)
f00041ba:	74 20                	je     f00041dc <rodata+0x214>
f00041bc:	6d                   	insl   (%dx),%es:(%edi)
f00041bd:	65                   	gs
f00041be:	6d                   	insl   (%dx),%es:(%edi)
f00041bf:	6f                   	outsl  %ds:(%esi),(%dx)
f00041c0:	72 79                	jb     f000423b <rodata+0x273>
f00041c2:	20 6d 61             	and    %ch,0x61(%ebp)
f00041c5:	70 20                	jo     f00041e7 <rodata+0x21f>
f00041c7:	69 6e 66 6f 72 6d 61 	imul   $0x616d726f,0x66(%esi),%ebp
f00041ce:	74 69                	je     f0004239 <rodata+0x271>
f00041d0:	6f                   	outsl  %ds:(%esi),(%dx)
f00041d1:	6e                   	outsb  %ds:(%esi),(%dx)
f00041d2:	20 61 76             	and    %ah,0x76(%ecx)
f00041d5:	61                   	popa   
f00041d6:	69 6c 61 62 6c 65 20 	imul   $0x2d20656c,0x62(%ecx,2),%ebp
f00041dd:	2d 
f00041de:	20 48 61             	and    %cl,0x61(%eax)
f00041e1:	6c                   	insb   (%dx),%es:(%edi)
f00041e2:	74 69                	je     f000424d <rodata+0x285>
f00041e4:	6e                   	outsb  %ds:(%esi),(%dx)
f00041e5:	67 0a 00             	addr16 or (%bx,%si),%al
f00041e8:	4d                   	dec    %ebp
f00041e9:	4d                   	dec    %ebp
f00041ea:	5f                   	pop    %edi
f00041eb:	50                   	push   %eax
f00041ec:	61                   	popa   
f00041ed:	67                   	addr16
f00041ee:	65                   	gs
f00041ef:	5f                   	pop    %edi
f00041f0:	46                   	inc    %esi
f00041f1:	72 65                	jb     f0004258 <rodata+0x290>
f00041f3:	65                   	gs
f00041f4:	2c 20                	sub    $0x20,%al
f00041f6:	50                   	push   %eax
f00041f7:	68 79 73 69 63       	push   $0x63697379
f00041fc:	61                   	popa   
f00041fd:	6c                   	insb   (%dx),%es:(%edi)
f00041fe:	3d 30 78 25 58       	cmp    $0x58257830,%eax
f0004203:	20 6e 6f             	and    %ch,0x6f(%esi)
f0004206:	74 20                	je     f0004228 <rodata+0x260>
f0004208:	6f                   	outsl  %ds:(%esi),(%dx)
f0004209:	6e                   	outsb  %ds:(%esi),(%dx)
f000420a:	20 70 61             	and    %dh,0x61(%eax)
f000420d:	67 65 20 62 6f       	addr16 and %ah,%gs:111(%bp,%si)
f0004212:	75 6e                	jne    f0004282 <rodata+0x2ba>
f0004214:	64                   	fs
f0004215:	61                   	popa   
f0004216:	72 79                	jb     f0004291 <rodata+0x2c9>
f0004218:	2e 20 48 61          	and    %cl,%cs:0x61(%eax)
f000421c:	6c                   	insb   (%dx),%es:(%edi)
f000421d:	74 69                	je     f0004288 <rodata+0x2c0>
f000421f:	6e                   	outsb  %ds:(%esi),(%dx)
f0004220:	67 0a 00             	addr16 or (%bx,%si),%al
f0004223:	00 46 41             	add    %al,0x41(%esi)
f0004226:	54                   	push   %esp
f0004227:	41                   	inc    %ecx
f0004228:	4c                   	dec    %esp
f0004229:	3a 20                	cmp    (%eax),%ah
f000422b:	4e                   	dec    %esi
f000422c:	6f                   	outsl  %ds:(%esi),(%dx)
f000422d:	20 6d 65             	and    %ch,0x65(%ebp)
f0004230:	6d                   	insl   (%dx),%es:(%edi)
f0004231:	6f                   	outsl  %ds:(%esi),(%dx)
f0004232:	72 79                	jb     f00042ad <rodata+0x2e5>
f0004234:	20 61 76             	and    %ah,0x76(%ecx)
f0004237:	61                   	popa   
f0004238:	69 6c 61 62 6c 65 20 	imul   $0x2d20656c,0x62(%ecx,2),%ebp
f000423f:	2d 
f0004240:	20 48 61             	and    %cl,0x61(%eax)
f0004243:	6c                   	insb   (%dx),%es:(%edi)
f0004244:	74 69                	je     f00042af <rodata+0x2e7>
f0004246:	6e                   	outsb  %ds:(%esi),(%dx)
f0004247:	67 0a 00             	addr16 or (%bx,%si),%al
f000424a:	00 00                	add    %al,(%eax)
f000424c:	46                   	inc    %esi
f000424d:	41                   	inc    %ecx
f000424e:	54                   	push   %esp
f000424f:	41                   	inc    %ecx
f0004250:	4c                   	dec    %esp
f0004251:	3a 20                	cmp    (%eax),%ah
f0004253:	55                   	push   %ebp
f0004254:	6e                   	outsb  %ds:(%esi),(%dx)
f0004255:	61                   	popa   
f0004256:	62 6c 65 20          	bound  %ebp,0x20(%ebp,2)
f000425a:	74 6f                	je     f00042cb <rodata+0x303>
f000425c:	20 61 6c             	and    %ah,0x6c(%ecx)
f000425f:	6c                   	insb   (%dx),%es:(%edi)
f0004260:	6f                   	outsl  %ds:(%esi),(%dx)
f0004261:	63 61 74             	arpl   %sp,0x74(%ecx)
f0004264:	65 20 6d 65          	and    %ch,%gs:0x65(%ebp)
f0004268:	6d                   	insl   (%dx),%es:(%edi)
f0004269:	6f                   	outsl  %ds:(%esi),(%dx)
f000426a:	72 79                	jb     f00042e5 <rodata+0x31d>
f000426c:	20 28                	and    %ch,(%eax)
f000426e:	25 6c 75 2f 25       	and    $0x252f756c,%eax
f0004273:	6c                   	insb   (%dx),%es:(%edi)
f0004274:	75 20                	jne    f0004296 <rodata+0x2ce>
f0004276:	62 79 74             	bound  %edi,0x74(%ecx)
f0004279:	65                   	gs
f000427a:	73 29                	jae    f00042a5 <rodata+0x2dd>
f000427c:	2d 20 48 61 6c       	sub    $0x6c614820,%eax
f0004281:	74 69                	je     f00042ec <rodata+0x324>
f0004283:	6e                   	outsb  %ds:(%esi),(%dx)
f0004284:	67 0a 00             	addr16 or (%bx,%si),%al
f0004287:	00 46 41             	add    %al,0x41(%esi)
f000428a:	54                   	push   %esp
f000428b:	41                   	inc    %ecx
f000428c:	4c                   	dec    %esp
f000428d:	3a 20                	cmp    (%eax),%ah
f000428f:	49                   	dec    %ecx
f0004290:	6e                   	outsb  %ds:(%esi),(%dx)
f0004291:	76 61                	jbe    f00042f4 <rodata+0x32c>
f0004293:	6c                   	insb   (%dx),%es:(%edi)
f0004294:	69 64 20 66 72 65 65 	imul   $0x20656572,0x66(%eax),%esp
f000429b:	20 
f000429c:	72 65                	jb     f0004303 <rodata+0x33b>
f000429e:	71 75                	jno    f0004315 <rodata+0x34d>
f00042a0:	65                   	gs
f00042a1:	73 74                	jae    f0004317 <rodata+0x34f>
f00042a3:	20 66 6f             	and    %ah,0x6f(%esi)
f00042a6:	72 20                	jb     f00042c8 <rodata+0x300>
f00042a8:	61                   	popa   
f00042a9:	6c                   	insb   (%dx),%es:(%edi)
f00042aa:	6c                   	insb   (%dx),%es:(%edi)
f00042ab:	6f                   	outsl  %ds:(%esi),(%dx)
f00042ac:	63 61 74             	arpl   %sp,0x74(%ecx)
f00042af:	69 6f 6e 20 61 74 20 	imul   $0x20746120,0x6e(%edi),%ebp
f00042b6:	30 78 25             	xor    %bh,0x25(%eax)
f00042b9:	58                   	pop    %eax
f00042ba:	0a 00                	or     (%eax),%al
f00042bc:	44                   	inc    %esp
f00042bd:	65 62 75 67          	bound  %esi,%gs:0x67(%ebp)
f00042c1:	20 46 61             	and    %al,0x61(%esi)
f00042c4:	75 6c                	jne    f0004332 <rodata+0x36a>
f00042c6:	74 20                	je     f00042e8 <rodata+0x320>
f00042c8:	66                   	data16
f00042c9:	72 6f                	jb     f000433a <rodata+0x372>
f00042cb:	6d                   	insl   (%dx),%es:(%edi)
f00042cc:	20 30                	and    %dh,(%eax)
f00042ce:	78 25                	js     f00042f5 <rodata+0x32d>
f00042d0:	58                   	pop    %eax
f00042d1:	3a 30                	cmp    (%eax),%dh
f00042d3:	78 25                	js     f00042fa <rodata+0x332>
f00042d5:	58                   	pop    %eax
f00042d6:	20 2d 20 48 61 6c    	and    %ch,0x6c614820
f00042dc:	74 69                	je     f0004347 <rodata+0x37f>
f00042de:	6e                   	outsb  %ds:(%esi),(%dx)
f00042df:	67 0a 00             	addr16 or (%bx,%si),%al
f00042e2:	00 00                	add    %al,(%eax)
f00042e4:	49                   	dec    %ecx
f00042e5:	6e                   	outsb  %ds:(%esi),(%dx)
f00042e6:	76 61                	jbe    f0004349 <rodata+0x381>
f00042e8:	6c                   	insb   (%dx),%es:(%edi)
f00042e9:	69 64 20 4f 70 63 6f 	imul   $0x646f6370,0x4f(%eax),%esp
f00042f0:	64 
f00042f1:	65 20 66 72          	and    %ah,%gs:0x72(%esi)
f00042f5:	6f                   	outsl  %ds:(%esi),(%dx)
f00042f6:	6d                   	insl   (%dx),%es:(%edi)
f00042f7:	20 30                	and    %dh,(%eax)
f00042f9:	78 25                	js     f0004320 <rodata+0x358>
f00042fb:	58                   	pop    %eax
f00042fc:	3a 30                	cmp    (%eax),%dh
f00042fe:	78 25                	js     f0004325 <rodata+0x35d>
f0004300:	58                   	pop    %eax
f0004301:	20 2d 20 48 61 6c    	and    %ch,0x6c614820
f0004307:	74 69                	je     f0004372 <rodata+0x3aa>
f0004309:	6e                   	outsb  %ds:(%esi),(%dx)
f000430a:	67 0a 00             	addr16 or (%bx,%si),%al
f000430d:	00 00                	add    %al,(%eax)
f000430f:	00 44 6f 75          	add    %al,0x75(%edi,%ebp,2)
f0004313:	62 6c 65 20          	bound  %ebp,0x20(%ebp,2)
f0004317:	46                   	inc    %esi
f0004318:	61                   	popa   
f0004319:	75 6c                	jne    f0004387 <rodata+0x3bf>
f000431b:	74 20                	je     f000433d <rodata+0x375>
f000431d:	66                   	data16
f000431e:	72 6f                	jb     f000438f <rodata+0x3c7>
f0004320:	6d                   	insl   (%dx),%es:(%edi)
f0004321:	20 30                	and    %dh,(%eax)
f0004323:	78 25                	js     f000434a <rodata+0x382>
f0004325:	58                   	pop    %eax
f0004326:	3a 30                	cmp    (%eax),%dh
f0004328:	78 25                	js     f000434f <rodata+0x387>
f000432a:	58                   	pop    %eax
f000432b:	20 2d 20 48 61 6c    	and    %ch,0x6c614820
f0004331:	74 69                	je     f000439c <rodata+0x3d4>
f0004333:	6e                   	outsb  %ds:(%esi),(%dx)
f0004334:	67 0a 00             	addr16 or (%bx,%si),%al
f0004337:	00 53 74             	add    %dl,0x74(%ebx)
f000433a:	61                   	popa   
f000433b:	63 6b 20             	arpl   %bp,0x20(%ebx)
f000433e:	46                   	inc    %esi
f000433f:	61                   	popa   
f0004340:	75 6c                	jne    f00043ae <rodata+0x3e6>
f0004342:	74 20                	je     f0004364 <rodata+0x39c>
f0004344:	66                   	data16
f0004345:	72 6f                	jb     f00043b6 <rodata+0x3ee>
f0004347:	6d                   	insl   (%dx),%es:(%edi)
f0004348:	20 30                	and    %dh,(%eax)
f000434a:	78 25                	js     f0004371 <rodata+0x3a9>
f000434c:	58                   	pop    %eax
f000434d:	3a 30                	cmp    (%eax),%dh
f000434f:	78 25                	js     f0004376 <rodata+0x3ae>
f0004351:	58                   	pop    %eax
f0004352:	20 2d 20 48 61 6c    	and    %ch,0x6c614820
f0004358:	74 69                	je     f00043c3 <rodata+0x3fb>
f000435a:	6e                   	outsb  %ds:(%esi),(%dx)
f000435b:	67 0a 00             	addr16 or (%bx,%si),%al
f000435e:	00 00                	add    %al,(%eax)
f0004360:	45                   	inc    %ebp
f0004361:	41                   	inc    %ecx
f0004362:	58                   	pop    %eax
f0004363:	3a 20                	cmp    (%eax),%ah
f0004365:	30 78 25             	xor    %bh,0x25(%eax)
f0004368:	58                   	pop    %eax
f0004369:	20 20                	and    %ah,(%eax)
f000436b:	45                   	inc    %ebp
f000436c:	42                   	inc    %edx
f000436d:	58                   	pop    %eax
f000436e:	3a 20                	cmp    (%eax),%ah
f0004370:	30 78 25             	xor    %bh,0x25(%eax)
f0004373:	58                   	pop    %eax
f0004374:	20 20                	and    %ah,(%eax)
f0004376:	45                   	inc    %ebp
f0004377:	43                   	inc    %ebx
f0004378:	58                   	pop    %eax
f0004379:	3a 20                	cmp    (%eax),%ah
f000437b:	30 78 25             	xor    %bh,0x25(%eax)
f000437e:	58                   	pop    %eax
f000437f:	20 20                	and    %ah,(%eax)
f0004381:	45                   	inc    %ebp
f0004382:	44                   	inc    %esp
f0004383:	58                   	pop    %eax
f0004384:	3a 20                	cmp    (%eax),%ah
f0004386:	30 78 25             	xor    %bh,0x25(%eax)
f0004389:	58                   	pop    %eax
f000438a:	0a 00                	or     (%eax),%al
f000438c:	45                   	inc    %ebp
f000438d:	42                   	inc    %edx
f000438e:	50                   	push   %eax
f000438f:	3a 20                	cmp    (%eax),%ah
f0004391:	30 78 25             	xor    %bh,0x25(%eax)
f0004394:	58                   	pop    %eax
f0004395:	20 20                	and    %ah,(%eax)
f0004397:	45                   	inc    %ebp
f0004398:	53                   	push   %ebx
f0004399:	50                   	push   %eax
f000439a:	3a 20                	cmp    (%eax),%ah
f000439c:	30 78 25             	xor    %bh,0x25(%eax)
f000439f:	58                   	pop    %eax
f00043a0:	20 20                	and    %ah,(%eax)
f00043a2:	45                   	inc    %ebp
f00043a3:	53                   	push   %ebx
f00043a4:	49                   	dec    %ecx
f00043a5:	3a 20                	cmp    (%eax),%ah
f00043a7:	30 78 25             	xor    %bh,0x25(%eax)
f00043aa:	58                   	pop    %eax
f00043ab:	20 20                	and    %ah,(%eax)
f00043ad:	45                   	inc    %ebp
f00043ae:	44                   	inc    %esp
f00043af:	49                   	dec    %ecx
f00043b0:	3a 20                	cmp    (%eax),%ah
f00043b2:	30 78 25             	xor    %bh,0x25(%eax)
f00043b5:	58                   	pop    %eax
f00043b6:	0a 0a                	or     (%edx),%cl
f00043b8:	00 00                	add    %al,(%eax)
f00043ba:	00 00                	add    %al,(%eax)
f00043bc:	55                   	push   %ebp
f00043bd:	6e                   	outsb  %ds:(%esi),(%dx)
f00043be:	68 61 6e 64 6c       	push   $0x6c646e61
f00043c3:	65 64 20 50 61       	and    %dl,%fs:%gs:0x61(%eax)
f00043c8:	67 65 20 46 61       	addr16 and %al,%gs:97(%bp)
f00043cd:	75 6c                	jne    f000443b <rodata+0x473>
f00043cf:	74 20                	je     f00043f1 <rodata+0x429>
f00043d1:	61                   	popa   
f00043d2:	74 20                	je     f00043f4 <rodata+0x42c>
f00043d4:	30 78 25             	xor    %bh,0x25(%eax)
f00043d7:	58                   	pop    %eax
f00043d8:	20 66 72             	and    %ah,0x72(%esi)
f00043db:	6f                   	outsl  %ds:(%esi),(%dx)
f00043dc:	6d                   	insl   (%dx),%es:(%edi)
f00043dd:	20 30                	and    %dh,(%eax)
f00043df:	78 25                	js     f0004406 <rodata+0x43e>
f00043e1:	58                   	pop    %eax
f00043e2:	3a 30                	cmp    (%eax),%dh
f00043e4:	78 25                	js     f000440b <rodata+0x443>
f00043e6:	58                   	pop    %eax
f00043e7:	20 28                	and    %ch,(%eax)
f00043e9:	45                   	inc    %ebp
f00043ea:	72 72                	jb     f000445e <rodata+0x496>
f00043ec:	6f                   	outsl  %ds:(%esi),(%dx)
f00043ed:	72 20                	jb     f000440f <rodata+0x447>
f00043ef:	30 78 25             	xor    %bh,0x25(%eax)
f00043f2:	58                   	pop    %eax
f00043f3:	2c 20                	sub    $0x20,%al
f00043f5:	46                   	inc    %esi
f00043f6:	6c                   	insb   (%dx),%es:(%edi)
f00043f7:	61                   	popa   
f00043f8:	67 73 20             	addr16 jae f000441b <rodata+0x453>
f00043fb:	30 78 25             	xor    %bh,0x25(%eax)
f00043fe:	58                   	pop    %eax
f00043ff:	29 0a                	sub    %ecx,(%edx)
f0004401:	00 45 58             	add    %al,0x58(%ebp)
f0004404:	43                   	inc    %ebx
f0004405:	45                   	inc    %ebp
f0004406:	50                   	push   %eax
f0004407:	54                   	push   %esp
f0004408:	49                   	dec    %ecx
f0004409:	4f                   	dec    %edi
f000440a:	4e                   	dec    %esi
f000440b:	00 50 6f             	add    %dl,0x6f(%eax)
f000440e:	69 6e 74 65 72 3a 20 	imul   $0x203a7265,0x74(%esi),%ebp
f0004415:	30 78 25             	xor    %bh,0x25(%eax)
f0004418:	58                   	pop    %eax
f0004419:	0a 00                	or     (%eax),%al
f000441b:	30 78 25             	xor    %bh,0x25(%eax)
f000441e:	30 38                	xor    %bh,(%eax)
f0004420:	58                   	pop    %eax
f0004421:	3a 20                	cmp    (%eax),%ah
f0004423:	30 78 25             	xor    %bh,0x25(%eax)
f0004426:	30 38                	xor    %bh,(%eax)
f0004428:	58                   	pop    %eax
f0004429:	00 20                	add    %ah,(%eax)
f000442b:	30 78 25             	xor    %bh,0x25(%eax)
f000442e:	30 38                	xor    %bh,(%eax)
f0004430:	58                   	pop    %eax
f0004431:	0a 00                	or     (%eax),%al
f0004433:	47                   	inc    %edi
f0004434:	50                   	push   %eax
f0004435:	46                   	inc    %esi
f0004436:	20 66 72             	and    %ah,0x72(%esi)
f0004439:	6f                   	outsl  %ds:(%esi),(%dx)
f000443a:	6d                   	insl   (%dx),%es:(%edi)
f000443b:	20 30                	and    %dh,(%eax)
f000443d:	78 25                	js     f0004464 <rodata+0x49c>
f000443f:	58                   	pop    %eax
f0004440:	3a 30                	cmp    (%eax),%dh
f0004442:	78 25                	js     f0004469 <rodata+0x4a1>
f0004444:	58                   	pop    %eax
f0004445:	20 2d 20 48 61 6c    	and    %ch,0x6c614820
f000444b:	74 69                	je     f00044b6 <rodata+0x4ee>
f000444d:	6e                   	outsb  %ds:(%esi),(%dx)
f000444e:	67 0a 00             	addr16 or (%bx,%si),%al
f0004451:	3c 4e                	cmp    $0x4e,%al
f0004453:	55                   	push   %ebp
f0004454:	4c                   	dec    %esp
f0004455:	4c                   	dec    %esp
f0004456:	3e 00 b5 2e 00 f0 d0 	add    %dh,%ds:0xd0f0002e(%ebp)
f000445d:	2e                   	cs
f000445e:	00 f0                	add    %dh,%al
f0004460:	d0 2e                	shrb   (%esi)
f0004462:	00 f0                	add    %dh,%al
f0004464:	c0 2e 00             	shrb   $0x0,(%esi)
f0004467:	f0 d0 2e             	lock shrb (%esi)
f000446a:	00 f0                	add    %dh,%al
f000446c:	d0 2e                	shrb   (%esi)
f000446e:	00 f0                	add    %dh,%al
f0004470:	d0 2e                	shrb   (%esi)
f0004472:	00 f0                	add    %dh,%al
f0004474:	d0 2e                	shrb   (%esi)
f0004476:	00 f0                	add    %dh,%al
f0004478:	d0 2e                	shrb   (%esi)
f000447a:	00 f0                	add    %dh,%al
f000447c:	d0 2e                	shrb   (%esi)
f000447e:	00 f0                	add    %dh,%al
f0004480:	d0 2e                	shrb   (%esi)
f0004482:	00 f0                	add    %dh,%al
f0004484:	c5 2e                	lds    (%esi),%ebp
f0004486:	00 f0                	add    %dh,%al
f0004488:	d0 2e                	shrb   (%esi)
f000448a:	00 f0                	add    %dh,%al
f000448c:	b0 2e                	mov    $0x2e,%al
f000448e:	00 f0                	add    %dh,%al
f0004490:	d0 2e                	shrb   (%esi)
f0004492:	00 f0                	add    %dh,%al
f0004494:	d0 2e                	shrb   (%esi)
f0004496:	00 f0                	add    %dh,%al
f0004498:	86 32                	xchg   %dh,(%edx)
f000449a:	00 f0                	add    %dh,%al
f000449c:	f3 2f                	repz das 
f000449e:	00 f0                	add    %dh,%al
f00044a0:	60                   	pusha  
f00044a1:	2f                   	das    
f00044a2:	00 f0                	add    %dh,%al
f00044a4:	60                   	pusha  
f00044a5:	2f                   	das    
f00044a6:	00 f0                	add    %dh,%al
f00044a8:	60                   	pusha  
f00044a9:	2f                   	das    
f00044aa:	00 f0                	add    %dh,%al
f00044ac:	60                   	pusha  
f00044ad:	2f                   	das    
f00044ae:	00 f0                	add    %dh,%al
f00044b0:	60                   	pusha  
f00044b1:	2f                   	das    
f00044b2:	00 f0                	add    %dh,%al
f00044b4:	60                   	pusha  
f00044b5:	2f                   	das    
f00044b6:	00 f0                	add    %dh,%al
f00044b8:	60                   	pusha  
f00044b9:	2f                   	das    
f00044ba:	00 f0                	add    %dh,%al
f00044bc:	60                   	pusha  
f00044bd:	2f                   	das    
f00044be:	00 f0                	add    %dh,%al
f00044c0:	60                   	pusha  
f00044c1:	2f                   	das    
f00044c2:	00 f0                	add    %dh,%al
f00044c4:	60                   	pusha  
f00044c5:	2f                   	das    
f00044c6:	00 f0                	add    %dh,%al
f00044c8:	60                   	pusha  
f00044c9:	2f                   	das    
f00044ca:	00 f0                	add    %dh,%al
f00044cc:	60                   	pusha  
f00044cd:	2f                   	das    
f00044ce:	00 f0                	add    %dh,%al
f00044d0:	60                   	pusha  
f00044d1:	2f                   	das    
f00044d2:	00 f0                	add    %dh,%al
f00044d4:	60                   	pusha  
f00044d5:	2f                   	das    
f00044d6:	00 f0                	add    %dh,%al
f00044d8:	60                   	pusha  
f00044d9:	2f                   	das    
f00044da:	00 f0                	add    %dh,%al
f00044dc:	60                   	pusha  
f00044dd:	2f                   	das    
f00044de:	00 f0                	add    %dh,%al
f00044e0:	60                   	pusha  
f00044e1:	2f                   	das    
f00044e2:	00 f0                	add    %dh,%al
f00044e4:	60                   	pusha  
f00044e5:	2f                   	das    
f00044e6:	00 f0                	add    %dh,%al
f00044e8:	60                   	pusha  
f00044e9:	2f                   	das    
f00044ea:	00 f0                	add    %dh,%al
f00044ec:	60                   	pusha  
f00044ed:	2f                   	das    
f00044ee:	00 f0                	add    %dh,%al
f00044f0:	60                   	pusha  
f00044f1:	2f                   	das    
f00044f2:	00 f0                	add    %dh,%al
f00044f4:	60                   	pusha  
f00044f5:	2f                   	das    
f00044f6:	00 f0                	add    %dh,%al
f00044f8:	60                   	pusha  
f00044f9:	2f                   	das    
f00044fa:	00 f0                	add    %dh,%al
f00044fc:	60                   	pusha  
f00044fd:	2f                   	das    
f00044fe:	00 f0                	add    %dh,%al
f0004500:	60                   	pusha  
f0004501:	2f                   	das    
f0004502:	00 f0                	add    %dh,%al
f0004504:	60                   	pusha  
f0004505:	2f                   	das    
f0004506:	00 f0                	add    %dh,%al
f0004508:	60                   	pusha  
f0004509:	2f                   	das    
f000450a:	00 f0                	add    %dh,%al
f000450c:	60                   	pusha  
f000450d:	2f                   	das    
f000450e:	00 f0                	add    %dh,%al
f0004510:	60                   	pusha  
f0004511:	2f                   	das    
f0004512:	00 f0                	add    %dh,%al
f0004514:	60                   	pusha  
f0004515:	2f                   	das    
f0004516:	00 f0                	add    %dh,%al
f0004518:	60                   	pusha  
f0004519:	2f                   	das    
f000451a:	00 f0                	add    %dh,%al
f000451c:	60                   	pusha  
f000451d:	2f                   	das    
f000451e:	00 f0                	add    %dh,%al
f0004520:	60                   	pusha  
f0004521:	2f                   	das    
f0004522:	00 f0                	add    %dh,%al
f0004524:	60                   	pusha  
f0004525:	2f                   	das    
f0004526:	00 f0                	add    %dh,%al
f0004528:	60                   	pusha  
f0004529:	2f                   	das    
f000452a:	00 f0                	add    %dh,%al
f000452c:	60                   	pusha  
f000452d:	2f                   	das    
f000452e:	00 f0                	add    %dh,%al
f0004530:	60                   	pusha  
f0004531:	2f                   	das    
f0004532:	00 f0                	add    %dh,%al
f0004534:	60                   	pusha  
f0004535:	2f                   	das    
f0004536:	00 f0                	add    %dh,%al
f0004538:	60                   	pusha  
f0004539:	2f                   	das    
f000453a:	00 f0                	add    %dh,%al
f000453c:	60                   	pusha  
f000453d:	2f                   	das    
f000453e:	00 f0                	add    %dh,%al
f0004540:	60                   	pusha  
f0004541:	2f                   	das    
f0004542:	00 f0                	add    %dh,%al
f0004544:	60                   	pusha  
f0004545:	2f                   	das    
f0004546:	00 f0                	add    %dh,%al
f0004548:	60                   	pusha  
f0004549:	2f                   	das    
f000454a:	00 f0                	add    %dh,%al
f000454c:	60                   	pusha  
f000454d:	2f                   	das    
f000454e:	00 f0                	add    %dh,%al
f0004550:	60                   	pusha  
f0004551:	2f                   	das    
f0004552:	00 f0                	add    %dh,%al
f0004554:	60                   	pusha  
f0004555:	2f                   	das    
f0004556:	00 f0                	add    %dh,%al
f0004558:	60                   	pusha  
f0004559:	2f                   	das    
f000455a:	00 f0                	add    %dh,%al
f000455c:	60                   	pusha  
f000455d:	2f                   	das    
f000455e:	00 f0                	add    %dh,%al
f0004560:	60                   	pusha  
f0004561:	2f                   	das    
f0004562:	00 f0                	add    %dh,%al
f0004564:	60                   	pusha  
f0004565:	2f                   	das    
f0004566:	00 f0                	add    %dh,%al
f0004568:	04 30                	add    $0x30,%al
f000456a:	00 f0                	add    %dh,%al
f000456c:	60                   	pusha  
f000456d:	2f                   	das    
f000456e:	00 f0                	add    %dh,%al
f0004570:	60                   	pusha  
f0004571:	2f                   	das    
f0004572:	00 f0                	add    %dh,%al
f0004574:	60                   	pusha  
f0004575:	2f                   	das    
f0004576:	00 f0                	add    %dh,%al
f0004578:	60                   	pusha  
f0004579:	2f                   	das    
f000457a:	00 f0                	add    %dh,%al
f000457c:	60                   	pusha  
f000457d:	2f                   	das    
f000457e:	00 f0                	add    %dh,%al
f0004580:	60                   	pusha  
f0004581:	2f                   	das    
f0004582:	00 f0                	add    %dh,%al
f0004584:	60                   	pusha  
f0004585:	2f                   	das    
f0004586:	00 f0                	add    %dh,%al
f0004588:	60                   	pusha  
f0004589:	2f                   	das    
f000458a:	00 f0                	add    %dh,%al
f000458c:	60                   	pusha  
f000458d:	2f                   	das    
f000458e:	00 f0                	add    %dh,%al
f0004590:	60                   	pusha  
f0004591:	2f                   	das    
f0004592:	00 f0                	add    %dh,%al
f0004594:	86 2f                	xchg   %ch,(%edi)
f0004596:	00 f0                	add    %dh,%al
f0004598:	ad                   	lods   %ds:(%esi),%eax
f0004599:	30 00                	xor    %al,(%eax)
f000459b:	f0 60                	lock pusha 
f000459d:	2f                   	das    
f000459e:	00 f0                	add    %dh,%al
f00045a0:	60                   	pusha  
f00045a1:	2f                   	das    
f00045a2:	00 f0                	add    %dh,%al
f00045a4:	60                   	pusha  
f00045a5:	2f                   	das    
f00045a6:	00 f0                	add    %dh,%al
f00045a8:	60                   	pusha  
f00045a9:	2f                   	das    
f00045aa:	00 f0                	add    %dh,%al
f00045ac:	ad                   	lods   %ds:(%esi),%eax
f00045ad:	30 00                	xor    %al,(%eax)
f00045af:	f0 60                	lock pusha 
f00045b1:	2f                   	das    
f00045b2:	00 f0                	add    %dh,%al
f00045b4:	60                   	pusha  
f00045b5:	2f                   	das    
f00045b6:	00 f0                	add    %dh,%al
f00045b8:	60                   	pusha  
f00045b9:	2f                   	das    
f00045ba:	00 f0                	add    %dh,%al
f00045bc:	60                   	pusha  
f00045bd:	2f                   	das    
f00045be:	00 f0                	add    %dh,%al
f00045c0:	b5 30                	mov    $0x30,%ch
f00045c2:	00 f0                	add    %dh,%al
f00045c4:	d1                   	(bad)  
f00045c5:	30 00                	xor    %al,(%eax)
f00045c7:	f0 db 30             	lock (bad) (%eax)
f00045ca:	00 f0                	add    %dh,%al
f00045cc:	60                   	pusha  
f00045cd:	2f                   	das    
f00045ce:	00 f0                	add    %dh,%al
f00045d0:	60                   	pusha  
f00045d1:	2f                   	das    
f00045d2:	00 f0                	add    %dh,%al
f00045d4:	0f 31                	rdtsc  
f00045d6:	00 f0                	add    %dh,%al
f00045d8:	60                   	pusha  
f00045d9:	2f                   	das    
f00045da:	00 f0                	add    %dh,%al
f00045dc:	0c 30                	or     $0x30,%al
f00045de:	00 f0                	add    %dh,%al
f00045e0:	60                   	pusha  
f00045e1:	2f                   	das    
f00045e2:	00 f0                	add    %dh,%al
f00045e4:	60                   	pusha  
f00045e5:	2f                   	das    
f00045e6:	00 f0                	add    %dh,%al
f00045e8:	07                   	pop    %es
f00045e9:	30 00                	xor    %al,(%eax)
f00045eb:	f0 30 31             	lock xor %dh,(%ecx)
f00045ee:	32 33                	xor    (%ebx),%dh
f00045f0:	34 35                	xor    $0x35,%al
f00045f2:	36                   	ss
f00045f3:	37                   	aaa    
f00045f4:	38 39                	cmp    %bh,(%ecx)
f00045f6:	61                   	popa   
f00045f7:	62 63 64             	bound  %esp,0x64(%ebx)
f00045fa:	65                   	gs
f00045fb:	66 67 68 69 6a       	addr16 pushw $0x6a69
f0004600:	6b 6c 6d 6e 6f       	imul   $0x6f,0x6e(%ebp,%ebp,2),%ebp
f0004605:	70 71                	jo     f0004678 <rodata+0x6b0>
f0004607:	72 73                	jb     f000467c <rodata+0x6b4>
f0004609:	74 75                	je     f0004680 <rodata+0x6b8>
f000460b:	76 77                	jbe    f0004684 <rodata+0x6bc>
f000460d:	78 79                	js     f0004688 <rodata+0x6c0>
f000460f:	7a 00                	jp     f0004611 <rodata+0x649>
f0004611:	00 00                	add    %al,(%eax)
f0004613:	00 30                	add    %dh,(%eax)
f0004615:	31 32                	xor    %esi,(%edx)
f0004617:	33 34 35 36 37 38 39 	xor    0x39383736(,%esi,1),%esi
f000461e:	41                   	inc    %ecx
f000461f:	42                   	inc    %edx
f0004620:	43                   	inc    %ebx
f0004621:	44                   	inc    %esp
f0004622:	45                   	inc    %ebp
f0004623:	46                   	inc    %esi
f0004624:	47                   	inc    %edi
f0004625:	48                   	dec    %eax
f0004626:	49                   	dec    %ecx
f0004627:	4a                   	dec    %edx
f0004628:	4b                   	dec    %ebx
f0004629:	4c                   	dec    %esp
f000462a:	4d                   	dec    %ebp
f000462b:	4e                   	dec    %esi
f000462c:	4f                   	dec    %edi
f000462d:	50                   	push   %eax
f000462e:	51                   	push   %ecx
f000462f:	52                   	push   %edx
f0004630:	53                   	push   %ebx
f0004631:	54                   	push   %esp
f0004632:	55                   	push   %ebp
f0004633:	56                   	push   %esi
f0004634:	57                   	push   %edi
f0004635:	58                   	pop    %eax
f0004636:	59                   	pop    %ecx
f0004637:	5a                   	pop    %edx
f0004638:	00 00                	add    %al,(%eax)
f000463a:	00 00                	add    %al,(%eax)
f000463c:	00 00                	add    %al,(%eax)
f000463e:	20 41 9a             	and    %al,0xffffff9a(%ecx)
f0004641:	99                   	cltd   
f0004642:	99                   	cltd   
f0004643:	99                   	cltd   
f0004644:	99                   	cltd   
f0004645:	99                   	cltd   
f0004646:	b9 3f 84 36 00       	mov    $0x36843f,%ecx
f000464b:	f0 88 36             	lock mov %dh,(%esi)
f000464e:	00 f0                	add    %dh,%al
f0004650:	88 36                	mov    %dh,(%esi)
f0004652:	00 f0                	add    %dh,%al
f0004654:	88 36                	mov    %dh,(%esi)
f0004656:	00 f0                	add    %dh,%al
f0004658:	88 36                	mov    %dh,(%esi)
f000465a:	00 f0                	add    %dh,%al
f000465c:	88 36                	mov    %dh,(%esi)
f000465e:	00 f0                	add    %dh,%al
f0004660:	88 36                	mov    %dh,(%esi)
f0004662:	00 f0                	add    %dh,%al
f0004664:	88 36                	mov    %dh,(%esi)
f0004666:	00 f0                	add    %dh,%al
f0004668:	88 36                	mov    %dh,(%esi)
f000466a:	00 f0                	add    %dh,%al
f000466c:	e5 35                	in     $0x35,%eax
f000466e:	00 f0                	add    %dh,%al
f0004670:	e5 35                	in     $0x35,%eax
f0004672:	00 f0                	add    %dh,%al
f0004674:	e5 35                	in     $0x35,%eax
f0004676:	00 f0                	add    %dh,%al
f0004678:	e5 35                	in     $0x35,%eax
f000467a:	00 f0                	add    %dh,%al
f000467c:	e5 35                	in     $0x35,%eax
f000467e:	00 f0                	add    %dh,%al
f0004680:	88 36                	mov    %dh,(%esi)
f0004682:	00 f0                	add    %dh,%al
f0004684:	88 36                	mov    %dh,(%esi)
f0004686:	00 f0                	add    %dh,%al
f0004688:	88 36                	mov    %dh,(%esi)
f000468a:	00 f0                	add    %dh,%al
f000468c:	88 36                	mov    %dh,(%esi)
f000468e:	00 f0                	add    %dh,%al
f0004690:	88 36                	mov    %dh,(%esi)
f0004692:	00 f0                	add    %dh,%al
f0004694:	88 36                	mov    %dh,(%esi)
f0004696:	00 f0                	add    %dh,%al
f0004698:	88 36                	mov    %dh,(%esi)
f000469a:	00 f0                	add    %dh,%al
f000469c:	88 36                	mov    %dh,(%esi)
f000469e:	00 f0                	add    %dh,%al
f00046a0:	88 36                	mov    %dh,(%esi)
f00046a2:	00 f0                	add    %dh,%al
f00046a4:	88 36                	mov    %dh,(%esi)
f00046a6:	00 f0                	add    %dh,%al
f00046a8:	88 36                	mov    %dh,(%esi)
f00046aa:	00 f0                	add    %dh,%al
f00046ac:	88 36                	mov    %dh,(%esi)
f00046ae:	00 f0                	add    %dh,%al
f00046b0:	88 36                	mov    %dh,(%esi)
f00046b2:	00 f0                	add    %dh,%al
f00046b4:	88 36                	mov    %dh,(%esi)
f00046b6:	00 f0                	add    %dh,%al
f00046b8:	88 36                	mov    %dh,(%esi)
f00046ba:	00 f0                	add    %dh,%al
f00046bc:	88 36                	mov    %dh,(%esi)
f00046be:	00 f0                	add    %dh,%al
f00046c0:	88 36                	mov    %dh,(%esi)
f00046c2:	00 f0                	add    %dh,%al
f00046c4:	88 36                	mov    %dh,(%esi)
f00046c6:	00 f0                	add    %dh,%al
f00046c8:	e5 35                	in     $0x35,%eax
f00046ca:	00 f0                	add    %dh,%al
f00046cc:	88 36                	mov    %dh,(%esi)
f00046ce:	00 f0                	add    %dh,%al
f00046d0:	88 36                	mov    %dh,(%esi)
f00046d2:	00 f0                	add    %dh,%al
f00046d4:	88 36                	mov    %dh,(%esi)
f00046d6:	00 f0                	add    %dh,%al
f00046d8:	88 36                	mov    %dh,(%esi)
f00046da:	00 f0                	add    %dh,%al
f00046dc:	b0 36                	mov    $0x36,%al
f00046de:	00 f0                	add    %dh,%al
f00046e0:	84 36                	test   %dh,(%esi)
f00046e2:	00 f0                	add    %dh,%al
f00046e4:	25 36 00 f0 25       	and    $0x25f00036,%eax
f00046e9:	36                   	ss
f00046ea:	00 f0                	add    %dh,%al
f00046ec:	25 36 00 f0 25       	and    $0x25f00036,%eax
f00046f1:	36                   	ss
f00046f2:	00 f0                	add    %dh,%al
f00046f4:	25 36 00 f0 25       	and    $0x25f00036,%eax
f00046f9:	36                   	ss
f00046fa:	00 f0                	add    %dh,%al
f00046fc:	25 36 00 f0 25       	and    $0x25f00036,%eax
f0004701:	36                   	ss
f0004702:	00 f0                	add    %dh,%al
f0004704:	25 36 00 f0 25       	and    $0x25f00036,%eax
f0004709:	36                   	ss
f000470a:	00 f0                	add    %dh,%al
f000470c:	25 36 00 f0 25       	and    $0x25f00036,%eax
f0004711:	36                   	ss
f0004712:	00 f0                	add    %dh,%al
f0004714:	25 36 00 f0 25       	and    $0x25f00036,%eax
f0004719:	36                   	ss
f000471a:	00 f0                	add    %dh,%al
f000471c:	25 36 00 f0 25       	and    $0x25f00036,%eax
f0004721:	36                   	ss
f0004722:	00 f0                	add    %dh,%al
f0004724:	25 36 00 f0 25       	and    $0x25f00036,%eax
f0004729:	36                   	ss
f000472a:	00 f0                	add    %dh,%al
f000472c:	25 36 00 f0 25       	and    $0x25f00036,%eax
f0004731:	36                   	ss
f0004732:	00 f0                	add    %dh,%al
f0004734:	25 36 00 f0 25       	and    $0x25f00036,%eax
f0004739:	36                   	ss
f000473a:	00 f0                	add    %dh,%al
f000473c:	25 36 00 f0 25       	and    $0x25f00036,%eax
f0004741:	36                   	ss
f0004742:	00 f0                	add    %dh,%al
f0004744:	25 36 00 f0 25       	and    $0x25f00036,%eax
f0004749:	36                   	ss
f000474a:	00 f0                	add    %dh,%al
f000474c:	25 36 00 f0 25       	and    $0x25f00036,%eax
f0004751:	36                   	ss
f0004752:	00 f0                	add    %dh,%al
f0004754:	25 36 00 f0 25       	and    $0x25f00036,%eax
f0004759:	36                   	ss
f000475a:	00 f0                	add    %dh,%al
f000475c:	25 36 00 f0 25       	and    $0x25f00036,%eax
f0004761:	36                   	ss
f0004762:	00 f0                	add    %dh,%al
f0004764:	25 36 00 f0 25       	and    $0x25f00036,%eax
f0004769:	36                   	ss
f000476a:	00 f0                	add    %dh,%al
f000476c:	25 36 00 f0 25       	and    $0x25f00036,%eax
f0004771:	36                   	ss
f0004772:	00 f0                	add    %dh,%al
f0004774:	88 36                	mov    %dh,(%esi)
f0004776:	00 f0                	add    %dh,%al
f0004778:	25 36 00 f0 25       	and    $0x25f00036,%eax
f000477d:	36                   	ss
f000477e:	00 f0                	add    %dh,%al
f0004780:	25 36 00 f0 25       	and    $0x25f00036,%eax
f0004785:	36                   	ss
f0004786:	00 f0                	add    %dh,%al
f0004788:	f1                   	icebp  
f0004789:	36                   	ss
f000478a:	00 f0                	add    %dh,%al
f000478c:	25 36 00 f0 25       	and    $0x25f00036,%eax
f0004791:	36                   	ss
f0004792:	00 f0                	add    %dh,%al
f0004794:	25 36 00 f0 25       	and    $0x25f00036,%eax
f0004799:	36                   	ss
f000479a:	00 f0                	add    %dh,%al
f000479c:	25 36 00 f0 f7       	and    $0xf7f00036,%eax
f00047a1:	36                   	ss
f00047a2:	00 f0                	add    %dh,%al
f00047a4:	f7 36                	divl   (%esi)
f00047a6:	00 f0                	add    %dh,%al
f00047a8:	f7 36                	divl   (%esi)
f00047aa:	00 f0                	add    %dh,%al
f00047ac:	f7 36                	divl   (%esi)
f00047ae:	00 f0                	add    %dh,%al
f00047b0:	f7 36                	divl   (%esi)
f00047b2:	00 f0                	add    %dh,%al
f00047b4:	f7 36                	divl   (%esi)
f00047b6:	00 f0                	add    %dh,%al
f00047b8:	f7 36                	divl   (%esi)
f00047ba:	00 f0                	add    %dh,%al
f00047bc:	f7 36                	divl   (%esi)
f00047be:	00 f0                	add    %dh,%al
f00047c0:	f7 36                	divl   (%esi)
f00047c2:	00 f0                	add    %dh,%al
f00047c4:	f7 36                	divl   (%esi)
f00047c6:	00 f0                	add    %dh,%al
f00047c8:	25 36 00 f0 25       	and    $0x25f00036,%eax
f00047cd:	36                   	ss
f00047ce:	00 f0                	add    %dh,%al
f00047d0:	25 36 00 f0 25       	and    $0x25f00036,%eax
f00047d5:	36                   	ss
f00047d6:	00 f0                	add    %dh,%al
f00047d8:	25 36 00 f0 25       	and    $0x25f00036,%eax
f00047dd:	36                   	ss
f00047de:	00 f0                	add    %dh,%al
f00047e0:	25 36 00 f0 25       	and    $0x25f00036,%eax
f00047e5:	36                   	ss
f00047e6:	00 f0                	add    %dh,%al
f00047e8:	25 36 00 f0 25       	and    $0x25f00036,%eax
f00047ed:	36                   	ss
f00047ee:	00 f0                	add    %dh,%al
f00047f0:	25 36 00 f0 ce       	and    $0xcef00036,%eax
f00047f5:	39 00                	cmp    %eax,(%eax)
f00047f7:	f0 25 36 00 f0 25    	lock and $0x25f00036,%eax
f00047fd:	36                   	ss
f00047fe:	00 f0                	add    %dh,%al
f0004800:	25 36 00 f0 25       	and    $0x25f00036,%eax
f0004805:	36                   	ss
f0004806:	00 f0                	add    %dh,%al
f0004808:	25 36 00 f0 25       	and    $0x25f00036,%eax
f000480d:	36                   	ss
f000480e:	00 f0                	add    %dh,%al
f0004810:	ce                   	into   
f0004811:	36                   	ss
f0004812:	00 f0                	add    %dh,%al
f0004814:	25 36 00 f0 25       	and    $0x25f00036,%eax
f0004819:	36                   	ss
f000481a:	00 f0                	add    %dh,%al
f000481c:	25 36 00 f0 25       	and    $0x25f00036,%eax
f0004821:	36                   	ss
f0004822:	00 f0                	add    %dh,%al
f0004824:	25 36 00 f0 25       	and    $0x25f00036,%eax
f0004829:	36                   	ss
f000482a:	00 f0                	add    %dh,%al
f000482c:	25 36 00 f0 25       	and    $0x25f00036,%eax
f0004831:	36                   	ss
f0004832:	00 f0                	add    %dh,%al
f0004834:	25 36 00 f0 25       	and    $0x25f00036,%eax
f0004839:	36                   	ss
f000483a:	00 f0                	add    %dh,%al
f000483c:	25 36 00 f0 90       	and    $0x90f00036,%eax
f0004841:	3d 00 f0 25 36       	cmp    $0x3625f000,%eax
f0004846:	00 f0                	add    %dh,%al
f0004848:	25 36 00 f0 25       	and    $0x25f00036,%eax
f000484d:	36                   	ss
f000484e:	00 f0                	add    %dh,%al
f0004850:	25 36 00 f0 25       	and    $0x25f00036,%eax
f0004855:	36                   	ss
f0004856:	00 f0                	add    %dh,%al
f0004858:	25 36 00 f0 25       	and    $0x25f00036,%eax
f000485d:	36                   	ss
f000485e:	00 f0                	add    %dh,%al
f0004860:	25 36 00 f0 25       	and    $0x25f00036,%eax
f0004865:	36                   	ss
f0004866:	00 f0                	add    %dh,%al
f0004868:	25 36 00 f0 16       	and    $0x16f00036,%eax
f000486d:	37                   	aaa    
f000486e:	00 f0                	add    %dh,%al
f0004870:	9d                   	popf   
f0004871:	37                   	aaa    
f0004872:	00 f0                	add    %dh,%al
f0004874:	ce                   	into   
f0004875:	39 00                	cmp    %eax,(%eax)
f0004877:	f0 ce                	lock into 
f0004879:	39 00                	cmp    %eax,(%eax)
f000487b:	f0 ce                	lock into 
f000487d:	39 00                	cmp    %eax,(%eax)
f000487f:	f0 71 3c             	lock jno f00048be <rodata+0x8f6>
f0004882:	00 f0                	add    %dh,%al
f0004884:	af                   	scas   %es:(%edi),%eax
f0004885:	37                   	aaa    
f0004886:	00 f0                	add    %dh,%al
f0004888:	25 36 00 f0 25       	and    $0x25f00036,%eax
f000488d:	36                   	ss
f000488e:	00 f0                	add    %dh,%al
f0004890:	7a 3c                	jp     f00048ce <rodata+0x906>
f0004892:	00 f0                	add    %dh,%al
f0004894:	25 36 00 f0 83       	and    $0x83f00036,%eax
f0004899:	3c 00                	cmp    $0x0,%al
f000489b:	f0 a6                	lock cmpsb %es:(%edi),%ds:(%esi)
f000489d:	37                   	aaa    
f000489e:	00 f0                	add    %dh,%al
f00048a0:	90                   	nop    
f00048a1:	3d 00 f0 ce 36       	cmp    $0x36cef000,%eax
f00048a6:	00 f0                	add    %dh,%al
f00048a8:	25 36 00 f0 b0       	and    $0xb0f00036,%eax
f00048ad:	3c 00                	cmp    $0x0,%al
f00048af:	f0 25 36 00 f0 af    	lock and $0xaff00036,%eax
f00048b5:	37                   	aaa    
f00048b6:	00 f0                	add    %dh,%al
f00048b8:	25 36 00 f0 25       	and    $0x25f00036,%eax
f00048bd:	36                   	ss
f00048be:	00 f0                	add    %dh,%al
f00048c0:	90                   	nop    
f00048c1:	3d                   	.byte 0x3d
f00048c2:	00 f0                	add    %dh,%al
Disassembly of section .data:

f00048e0 <data>:
f00048e0:	01 00                	add    %eax,(%eax)
	...

f00048e4 <l_nVersionName>:
f00048e4:	56                   	push   %esi
f00048e5:	61                   	popa   
f00048e6:	6c                   	insb   (%dx),%es:(%edi)
f00048e7:	65 6f                	outsl  %gs:(%esi),(%dx)
f00048e9:	20 28                	and    %ch,(%eax)
f00048eb:	53                   	push   %ebx
f00048ec:	69 72 75 73 29 00 00 	imul   $0x2973,0x75(%edx),%esi
	...

f00048f4 <l_nPICMask>:
f00048f4:	ff                   	(bad)  
f00048f5:	ff 00                	incl   (%eax)
	...

f00048f8 <nAttr>:
f00048f8:	07                   	pop    %es
f00048f9:	00 00                	add    %al,(%eax)
f00048fb:	00 00                	add    %al,(%eax)
f00048fd:	00 00                	add    %al,(%eax)
	...

f0004900 <_ctype>:
f0004900:	08 08                	or     %cl,(%eax)
f0004902:	08 08                	or     %cl,(%eax)
f0004904:	08 08                	or     %cl,(%eax)
f0004906:	08 08                	or     %cl,(%eax)
f0004908:	08 28                	or     %ch,(%eax)
f000490a:	28 28                	sub    %ch,(%eax)
f000490c:	28 28                	sub    %ch,(%eax)
f000490e:	08 08                	or     %cl,(%eax)
f0004910:	08 08                	or     %cl,(%eax)
f0004912:	08 08                	or     %cl,(%eax)
f0004914:	08 08                	or     %cl,(%eax)
f0004916:	08 08                	or     %cl,(%eax)
f0004918:	08 08                	or     %cl,(%eax)
f000491a:	08 08                	or     %cl,(%eax)
f000491c:	08 08                	or     %cl,(%eax)
f000491e:	08 08                	or     %cl,(%eax)
f0004920:	a0 10 10 10 10       	mov    0x10101010,%al
f0004925:	10 10                	adc    %dl,(%eax)
f0004927:	10 10                	adc    %dl,(%eax)
f0004929:	10 10                	adc    %dl,(%eax)
f000492b:	10 10                	adc    %dl,(%eax)
f000492d:	10 10                	adc    %dl,(%eax)
f000492f:	10 04 04             	adc    %al,(%esp,%eax,1)
f0004932:	04 04                	add    $0x4,%al
f0004934:	04 04                	add    $0x4,%al
f0004936:	04 04                	add    $0x4,%al
f0004938:	04 04                	add    $0x4,%al
f000493a:	10 10                	adc    %dl,(%eax)
f000493c:	10 10                	adc    %dl,(%eax)
f000493e:	10 10                	adc    %dl,(%eax)
f0004940:	10 41 41             	adc    %al,0x41(%ecx)
f0004943:	41                   	inc    %ecx
f0004944:	41                   	inc    %ecx
f0004945:	41                   	inc    %ecx
f0004946:	41                   	inc    %ecx
f0004947:	01 01                	add    %eax,(%ecx)
f0004949:	01 01                	add    %eax,(%ecx)
f000494b:	01 01                	add    %eax,(%ecx)
f000494d:	01 01                	add    %eax,(%ecx)
f000494f:	01 01                	add    %eax,(%ecx)
f0004951:	01 01                	add    %eax,(%ecx)
f0004953:	01 01                	add    %eax,(%ecx)
f0004955:	01 01                	add    %eax,(%ecx)
f0004957:	01 01                	add    %eax,(%ecx)
f0004959:	01 01                	add    %eax,(%ecx)
f000495b:	10 10                	adc    %dl,(%eax)
f000495d:	10 10                	adc    %dl,(%eax)
f000495f:	10 10                	adc    %dl,(%eax)
f0004961:	42                   	inc    %edx
f0004962:	42                   	inc    %edx
f0004963:	42                   	inc    %edx
f0004964:	42                   	inc    %edx
f0004965:	42                   	inc    %edx
f0004966:	42                   	inc    %edx
f0004967:	02 02                	add    (%edx),%al
f0004969:	02 02                	add    (%edx),%al
f000496b:	02 02                	add    (%edx),%al
f000496d:	02 02                	add    (%edx),%al
f000496f:	02 02                	add    (%edx),%al
f0004971:	02 02                	add    (%edx),%al
f0004973:	02 02                	add    (%edx),%al
f0004975:	02 02                	add    (%edx),%al
f0004977:	02 02                	add    (%edx),%al
f0004979:	02 02                	add    (%edx),%al
f000497b:	10 10                	adc    %dl,(%eax)
f000497d:	10 10                	adc    %dl,(%eax)
f000497f:	08 00                	or     %al,(%eax)
	...
f000499d:	00 00                	add    %al,(%eax)
f000499f:	00 a0 10 10 10 10    	add    %ah,0x10101010(%eax)
f00049a5:	10 10                	adc    %dl,(%eax)
f00049a7:	10 10                	adc    %dl,(%eax)
f00049a9:	10 10                	adc    %dl,(%eax)
f00049ab:	10 10                	adc    %dl,(%eax)
f00049ad:	10 10                	adc    %dl,(%eax)
f00049af:	10 10                	adc    %dl,(%eax)
f00049b1:	10 10                	adc    %dl,(%eax)
f00049b3:	10 10                	adc    %dl,(%eax)
f00049b5:	10 10                	adc    %dl,(%eax)
f00049b7:	10 10                	adc    %dl,(%eax)
f00049b9:	10 10                	adc    %dl,(%eax)
f00049bb:	10 10                	adc    %dl,(%eax)
f00049bd:	10 10                	adc    %dl,(%eax)
f00049bf:	10 01                	adc    %al,(%ecx)
f00049c1:	01 01                	add    %eax,(%ecx)
f00049c3:	01 01                	add    %eax,(%ecx)
f00049c5:	01 01                	add    %eax,(%ecx)
f00049c7:	01 01                	add    %eax,(%ecx)
f00049c9:	01 01                	add    %eax,(%ecx)
f00049cb:	01 01                	add    %eax,(%ecx)
f00049cd:	01 01                	add    %eax,(%ecx)
f00049cf:	01 01                	add    %eax,(%ecx)
f00049d1:	01 01                	add    %eax,(%ecx)
f00049d3:	01 01                	add    %eax,(%ecx)
f00049d5:	01 01                	add    %eax,(%ecx)
f00049d7:	10 01                	adc    %al,(%ecx)
f00049d9:	01 01                	add    %eax,(%ecx)
f00049db:	01 01                	add    %eax,(%ecx)
f00049dd:	01 01                	add    %eax,(%ecx)
f00049df:	02 02                	add    (%edx),%al
f00049e1:	02 02                	add    (%edx),%al
f00049e3:	02 02                	add    (%edx),%al
f00049e5:	02 02                	add    (%edx),%al
f00049e7:	02 02                	add    (%edx),%al
f00049e9:	02 02                	add    (%edx),%al
f00049eb:	02 02                	add    (%edx),%al
f00049ed:	02 02                	add    (%edx),%al
f00049ef:	02 02                	add    (%edx),%al
f00049f1:	02 02                	add    (%edx),%al
f00049f3:	02 02                	add    (%edx),%al
f00049f5:	02 02                	add    (%edx),%al
f00049f7:	10 02                	adc    %al,(%edx)
f00049f9:	02 02                	add    (%edx),%al
f00049fb:	02 02                	add    (%edx),%al
f00049fd:	02 02                	add    (%edx),%al
f00049ff:	02                   	.byte 0x2
Disassembly of section .bss:

f0004a00 <bss>:
	...

f0004a01 <g_bKernelInitDone>:
f0004a01:	00 00                	add    %al,(%eax)
	...

f0004a04 <l_nVersionMajor>:
f0004a04:	00 00                	add    %al,(%eax)
	...

f0004a08 <l_nVersionMinor>:
	...

f0004a20 <l_IRQ_Handler>:
	...

f0004a60 <g_sKernel>:
	...

f0004ba0 <l_sSysLogLock>:
	...

f0004bc0 <l_sMemoryLock>:
	...

f0004be0 <g_nPP_KernelPTEs>:
	...

f00053e0 <g_psPP_Kernel>:
	...

f00054e8 <sTimerLock>:
f00054e8:	00 00                	add    %al,(%eax)
	...

f00054ec <nX>:
f00054ec:	00 00                	add    %al,(%eax)
	...

f00054f0 <nY>:
f00054f0:	00 00                	add    %al,(%eax)
	...

f00054f4 <g_pVideo>:
f00054f4:	00 00                	add    %al,(%eax)
	...

f00054f8 <nPos>:
f00054f8:	00 00                	add    %al,(%eax)
	...

f00054fc <l_sGDT>:
f00054fc:	00 00                	add    %al,(%eax)
	...

f0005500 <l_sIDT>:
f0005500:	00 00                	add    %al,(%eax)
	...
Disassembly of section .comment:

00000000 <.comment>:
   0:	00 47 43             	add    %al,0x43(%edi)
   3:	43                   	inc    %ebx
   4:	3a 20                	cmp    (%eax),%ah
   6:	28 47 4e             	sub    %al,0x4e(%edi)
   9:	55                   	push   %ebp
   a:	29 20                	sub    %esp,(%eax)
   c:	33 2e                	xor    (%esi),%ebp
   e:	33 2e                	xor    (%esi),%ebp
  10:	33 20                	xor    (%eax),%esp
  12:	32 30                	xor    (%eax),%dh
  14:	30 34 30             	xor    %dh,(%eax,%esi,1)
  17:	34 31                	xor    $0x31,%al
  19:	32 20                	xor    (%eax),%ah
  1b:	28 52 65             	sub    %dl,0x65(%edx)
  1e:	64 20 48 61          	and    %cl,%fs:0x61(%eax)
  22:	74 20                	je     44 <phys-0xfffbc>
  24:	4c                   	dec    %esp
  25:	69 6e 75 78 20 33 2e 	imul   $0x2e332078,0x75(%esi),%ebp
  2c:	33 2e                	xor    (%esi),%ebp
  2e:	33 2d 37 29 00 00    	xor    0x2937,%ebp
  34:	47                   	inc    %edi
  35:	43                   	inc    %ebx
  36:	43                   	inc    %ebx
  37:	3a 20                	cmp    (%eax),%ah
  39:	28 47 4e             	sub    %al,0x4e(%edi)
  3c:	55                   	push   %ebp
  3d:	29 20                	sub    %esp,(%eax)
  3f:	33 2e                	xor    (%esi),%ebp
  41:	33 2e                	xor    (%esi),%ebp
  43:	33 20                	xor    (%eax),%esp
  45:	32 30                	xor    (%eax),%dh
  47:	30 34 30             	xor    %dh,(%eax,%esi,1)
  4a:	34 31                	xor    $0x31,%al
  4c:	32 20                	xor    (%eax),%ah
  4e:	28 52 65             	sub    %dl,0x65(%edx)
  51:	64 20 48 61          	and    %cl,%fs:0x61(%eax)
  55:	74 20                	je     77 <phys-0xfff89>
  57:	4c                   	dec    %esp
  58:	69 6e 75 78 20 33 2e 	imul   $0x2e332078,0x75(%esi),%ebp
  5f:	33 2e                	xor    (%esi),%ebp
  61:	33 2d 37 29 00 00    	xor    0x2937,%ebp
  67:	47                   	inc    %edi
  68:	43                   	inc    %ebx
  69:	43                   	inc    %ebx
  6a:	3a 20                	cmp    (%eax),%ah
  6c:	28 47 4e             	sub    %al,0x4e(%edi)
  6f:	55                   	push   %ebp
  70:	29 20                	sub    %esp,(%eax)
  72:	33 2e                	xor    (%esi),%ebp
  74:	33 2e                	xor    (%esi),%ebp
  76:	33 20                	xor    (%eax),%esp
  78:	32 30                	xor    (%eax),%dh
  7a:	30 34 30             	xor    %dh,(%eax,%esi,1)
  7d:	34 31                	xor    $0x31,%al
  7f:	32 20                	xor    (%eax),%ah
  81:	28 52 65             	sub    %dl,0x65(%edx)
  84:	64 20 48 61          	and    %cl,%fs:0x61(%eax)
  88:	74 20                	je     aa <phys-0xfff56>
  8a:	4c                   	dec    %esp
  8b:	69 6e 75 78 20 33 2e 	imul   $0x2e332078,0x75(%esi),%ebp
  92:	33 2e                	xor    (%esi),%ebp
  94:	33 2d 37 29 00 00    	xor    0x2937,%ebp
  9a:	47                   	inc    %edi
  9b:	43                   	inc    %ebx
  9c:	43                   	inc    %ebx
  9d:	3a 20                	cmp    (%eax),%ah
  9f:	28 47 4e             	sub    %al,0x4e(%edi)
  a2:	55                   	push   %ebp
  a3:	29 20                	sub    %esp,(%eax)
  a5:	33 2e                	xor    (%esi),%ebp
  a7:	33 2e                	xor    (%esi),%ebp
  a9:	33 20                	xor    (%eax),%esp
  ab:	32 30                	xor    (%eax),%dh
  ad:	30 34 30             	xor    %dh,(%eax,%esi,1)
  b0:	34 31                	xor    $0x31,%al
  b2:	32 20                	xor    (%eax),%ah
  b4:	28 52 65             	sub    %dl,0x65(%edx)
  b7:	64 20 48 61          	and    %cl,%fs:0x61(%eax)
  bb:	74 20                	je     dd <phys-0xfff23>
  bd:	4c                   	dec    %esp
  be:	69 6e 75 78 20 33 2e 	imul   $0x2e332078,0x75(%esi),%ebp
  c5:	33 2e                	xor    (%esi),%ebp
  c7:	33 2d 37 29 00 00    	xor    0x2937,%ebp
  cd:	47                   	inc    %edi
  ce:	43                   	inc    %ebx
  cf:	43                   	inc    %ebx
  d0:	3a 20                	cmp    (%eax),%ah
  d2:	28 47 4e             	sub    %al,0x4e(%edi)
  d5:	55                   	push   %ebp
  d6:	29 20                	sub    %esp,(%eax)
  d8:	33 2e                	xor    (%esi),%ebp
  da:	33 2e                	xor    (%esi),%ebp
  dc:	33 20                	xor    (%eax),%esp
  de:	32 30                	xor    (%eax),%dh
  e0:	30 34 30             	xor    %dh,(%eax,%esi,1)
  e3:	34 31                	xor    $0x31,%al
  e5:	32 20                	xor    (%eax),%ah
  e7:	28 52 65             	sub    %dl,0x65(%edx)
  ea:	64 20 48 61          	and    %cl,%fs:0x61(%eax)
  ee:	74 20                	je     110 <phys-0xffef0>
  f0:	4c                   	dec    %esp
  f1:	69 6e 75 78 20 33 2e 	imul   $0x2e332078,0x75(%esi),%ebp
  f8:	33 2e                	xor    (%esi),%ebp
  fa:	33 2d 37 29 00 00    	xor    0x2937,%ebp
 100:	47                   	inc    %edi
 101:	43                   	inc    %ebx
 102:	43                   	inc    %ebx
 103:	3a 20                	cmp    (%eax),%ah
 105:	28 47 4e             	sub    %al,0x4e(%edi)
 108:	55                   	push   %ebp
 109:	29 20                	sub    %esp,(%eax)
 10b:	33 2e                	xor    (%esi),%ebp
 10d:	33 2e                	xor    (%esi),%ebp
 10f:	33 20                	xor    (%eax),%esp
 111:	32 30                	xor    (%eax),%dh
 113:	30 34 30             	xor    %dh,(%eax,%esi,1)
 116:	34 31                	xor    $0x31,%al
 118:	32 20                	xor    (%eax),%ah
 11a:	28 52 65             	sub    %dl,0x65(%edx)
 11d:	64 20 48 61          	and    %cl,%fs:0x61(%eax)
 121:	74 20                	je     143 <phys-0xffebd>
 123:	4c                   	dec    %esp
 124:	69 6e 75 78 20 33 2e 	imul   $0x2e332078,0x75(%esi),%ebp
 12b:	33 2e                	xor    (%esi),%ebp
 12d:	33 2d 37 29 00 00    	xor    0x2937,%ebp
 133:	47                   	inc    %edi
 134:	43                   	inc    %ebx
 135:	43                   	inc    %ebx
 136:	3a 20                	cmp    (%eax),%ah
 138:	28 47 4e             	sub    %al,0x4e(%edi)
 13b:	55                   	push   %ebp
 13c:	29 20                	sub    %esp,(%eax)
 13e:	33 2e                	xor    (%esi),%ebp
 140:	33 2e                	xor    (%esi),%ebp
 142:	33 20                	xor    (%eax),%esp
 144:	32 30                	xor    (%eax),%dh
 146:	30 34 30             	xor    %dh,(%eax,%esi,1)
 149:	34 31                	xor    $0x31,%al
 14b:	32 20                	xor    (%eax),%ah
 14d:	28 52 65             	sub    %dl,0x65(%edx)
 150:	64 20 48 61          	and    %cl,%fs:0x61(%eax)
 154:	74 20                	je     176 <phys-0xffe8a>
 156:	4c                   	dec    %esp
 157:	69 6e 75 78 20 33 2e 	imul   $0x2e332078,0x75(%esi),%ebp
 15e:	33 2e                	xor    (%esi),%ebp
 160:	33 2d 37 29 00 00    	xor    0x2937,%ebp
 166:	47                   	inc    %edi
 167:	43                   	inc    %ebx
 168:	43                   	inc    %ebx
 169:	3a 20                	cmp    (%eax),%ah
 16b:	28 47 4e             	sub    %al,0x4e(%edi)
 16e:	55                   	push   %ebp
 16f:	29 20                	sub    %esp,(%eax)
 171:	33 2e                	xor    (%esi),%ebp
 173:	33 2e                	xor    (%esi),%ebp
 175:	33 20                	xor    (%eax),%esp
 177:	32 30                	xor    (%eax),%dh
 179:	30 34 30             	xor    %dh,(%eax,%esi,1)
 17c:	34 31                	xor    $0x31,%al
 17e:	32 20                	xor    (%eax),%ah
 180:	28 52 65             	sub    %dl,0x65(%edx)
 183:	64 20 48 61          	and    %cl,%fs:0x61(%eax)
 187:	74 20                	je     1a9 <phys-0xffe57>
 189:	4c                   	dec    %esp
 18a:	69 6e 75 78 20 33 2e 	imul   $0x2e332078,0x75(%esi),%ebp
 191:	33 2e                	xor    (%esi),%ebp
 193:	33 2d 37 29 00 00    	xor    0x2937,%ebp
 199:	47                   	inc    %edi
 19a:	43                   	inc    %ebx
 19b:	43                   	inc    %ebx
 19c:	3a 20                	cmp    (%eax),%ah
 19e:	28 47 4e             	sub    %al,0x4e(%edi)
 1a1:	55                   	push   %ebp
 1a2:	29 20                	sub    %esp,(%eax)
 1a4:	33 2e                	xor    (%esi),%ebp
 1a6:	33 2e                	xor    (%esi),%ebp
 1a8:	33 20                	xor    (%eax),%esp
 1aa:	32 30                	xor    (%eax),%dh
 1ac:	30 34 30             	xor    %dh,(%eax,%esi,1)
 1af:	34 31                	xor    $0x31,%al
 1b1:	32 20                	xor    (%eax),%ah
 1b3:	28 52 65             	sub    %dl,0x65(%edx)
 1b6:	64 20 48 61          	and    %cl,%fs:0x61(%eax)
 1ba:	74 20                	je     1dc <phys-0xffe24>
 1bc:	4c                   	dec    %esp
 1bd:	69 6e 75 78 20 33 2e 	imul   $0x2e332078,0x75(%esi),%ebp
 1c4:	33 2e                	xor    (%esi),%ebp
 1c6:	33 2d 37 29 00 00    	xor    0x2937,%ebp
 1cc:	47                   	inc    %edi
 1cd:	43                   	inc    %ebx
 1ce:	43                   	inc    %ebx
 1cf:	3a 20                	cmp    (%eax),%ah
 1d1:	28 47 4e             	sub    %al,0x4e(%edi)
 1d4:	55                   	push   %ebp
 1d5:	29 20                	sub    %esp,(%eax)
 1d7:	33 2e                	xor    (%esi),%ebp
 1d9:	33 2e                	xor    (%esi),%ebp
 1db:	33 20                	xor    (%eax),%esp
 1dd:	32 30                	xor    (%eax),%dh
 1df:	30 34 30             	xor    %dh,(%eax,%esi,1)
 1e2:	34 31                	xor    $0x31,%al
 1e4:	32 20                	xor    (%eax),%ah
 1e6:	28 52 65             	sub    %dl,0x65(%edx)
 1e9:	64 20 48 61          	and    %cl,%fs:0x61(%eax)
 1ed:	74 20                	je     20f <phys-0xffdf1>
 1ef:	4c                   	dec    %esp
 1f0:	69 6e 75 78 20 33 2e 	imul   $0x2e332078,0x75(%esi),%ebp
 1f7:	33 2e                	xor    (%esi),%ebp
 1f9:	33 2d 37 29 00 00    	xor    0x2937,%ebp
 1ff:	47                   	inc    %edi
 200:	43                   	inc    %ebx
 201:	43                   	inc    %ebx
 202:	3a 20                	cmp    (%eax),%ah
 204:	28 47 4e             	sub    %al,0x4e(%edi)
 207:	55                   	push   %ebp
 208:	29 20                	sub    %esp,(%eax)
 20a:	33 2e                	xor    (%esi),%ebp
 20c:	33 2e                	xor    (%esi),%ebp
 20e:	33 20                	xor    (%eax),%esp
 210:	32 30                	xor    (%eax),%dh
 212:	30 34 30             	xor    %dh,(%eax,%esi,1)
 215:	34 31                	xor    $0x31,%al
 217:	32 20                	xor    (%eax),%ah
 219:	28 52 65             	sub    %dl,0x65(%edx)
 21c:	64 20 48 61          	and    %cl,%fs:0x61(%eax)
 220:	74 20                	je     242 <phys-0xffdbe>
 222:	4c                   	dec    %esp
 223:	69 6e 75 78 20 33 2e 	imul   $0x2e332078,0x75(%esi),%ebp
 22a:	33 2e                	xor    (%esi),%ebp
 22c:	33 2d 37 29 00 00    	xor    0x2937,%ebp
 232:	47                   	inc    %edi
 233:	43                   	inc    %ebx
 234:	43                   	inc    %ebx
 235:	3a 20                	cmp    (%eax),%ah
 237:	28 47 4e             	sub    %al,0x4e(%edi)
 23a:	55                   	push   %ebp
 23b:	29 20                	sub    %esp,(%eax)
 23d:	33 2e                	xor    (%esi),%ebp
 23f:	33 2e                	xor    (%esi),%ebp
 241:	33 20                	xor    (%eax),%esp
 243:	32 30                	xor    (%eax),%dh
 245:	30 34 30             	xor    %dh,(%eax,%esi,1)
 248:	34 31                	xor    $0x31,%al
 24a:	32 20                	xor    (%eax),%ah
 24c:	28 52 65             	sub    %dl,0x65(%edx)
 24f:	64 20 48 61          	and    %cl,%fs:0x61(%eax)
 253:	74 20                	je     275 <phys-0xffd8b>
 255:	4c                   	dec    %esp
 256:	69 6e 75 78 20 33 2e 	imul   $0x2e332078,0x75(%esi),%ebp
 25d:	33 2e                	xor    (%esi),%ebp
 25f:	33 2d 37 29 00 00    	xor    0x2937,%ebp
 265:	47                   	inc    %edi
 266:	43                   	inc    %ebx
 267:	43                   	inc    %ebx
 268:	3a 20                	cmp    (%eax),%ah
 26a:	28 47 4e             	sub    %al,0x4e(%edi)
 26d:	55                   	push   %ebp
 26e:	29 20                	sub    %esp,(%eax)
 270:	33 2e                	xor    (%esi),%ebp
 272:	33 2e                	xor    (%esi),%ebp
 274:	33 20                	xor    (%eax),%esp
 276:	32 30                	xor    (%eax),%dh
 278:	30 34 30             	xor    %dh,(%eax,%esi,1)
 27b:	34 31                	xor    $0x31,%al
 27d:	32 20                	xor    (%eax),%ah
 27f:	28 52 65             	sub    %dl,0x65(%edx)
 282:	64 20 48 61          	and    %cl,%fs:0x61(%eax)
 286:	74 20                	je     2a8 <phys-0xffd58>
 288:	4c                   	dec    %esp
 289:	69 6e 75 78 20 33 2e 	imul   $0x2e332078,0x75(%esi),%ebp
 290:	33 2e                	xor    (%esi),%ebp
 292:	33 2d 37 29 00 00    	xor    0x2937,%ebp
 298:	47                   	inc    %edi
 299:	43                   	inc    %ebx
 29a:	43                   	inc    %ebx
 29b:	3a 20                	cmp    (%eax),%ah
 29d:	28 47 4e             	sub    %al,0x4e(%edi)
 2a0:	55                   	push   %ebp
 2a1:	29 20                	sub    %esp,(%eax)
 2a3:	33 2e                	xor    (%esi),%ebp
 2a5:	33 2e                	xor    (%esi),%ebp
 2a7:	33 20                	xor    (%eax),%esp
 2a9:	32 30                	xor    (%eax),%dh
 2ab:	30 34 30             	xor    %dh,(%eax,%esi,1)
 2ae:	34 31                	xor    $0x31,%al
 2b0:	32 20                	xor    (%eax),%ah
 2b2:	28 52 65             	sub    %dl,0x65(%edx)
 2b5:	64 20 48 61          	and    %cl,%fs:0x61(%eax)
 2b9:	74 20                	je     2db <phys-0xffd25>
 2bb:	4c                   	dec    %esp
 2bc:	69 6e 75 78 20 33 2e 	imul   $0x2e332078,0x75(%esi),%ebp
 2c3:	33 2e                	xor    (%esi),%ebp
 2c5:	33 2d 37 29 00 00    	xor    0x2937,%ebp
 2cb:	47                   	inc    %edi
 2cc:	43                   	inc    %ebx
 2cd:	43                   	inc    %ebx
 2ce:	3a 20                	cmp    (%eax),%ah
 2d0:	28 47 4e             	sub    %al,0x4e(%edi)
 2d3:	55                   	push   %ebp
 2d4:	29 20                	sub    %esp,(%eax)
 2d6:	33 2e                	xor    (%esi),%ebp
 2d8:	33 2e                	xor    (%esi),%ebp
 2da:	33 20                	xor    (%eax),%esp
 2dc:	32 30                	xor    (%eax),%dh
 2de:	30 34 30             	xor    %dh,(%eax,%esi,1)
 2e1:	34 31                	xor    $0x31,%al
 2e3:	32 20                	xor    (%eax),%ah
 2e5:	28 52 65             	sub    %dl,0x65(%edx)
 2e8:	64 20 48 61          	and    %cl,%fs:0x61(%eax)
 2ec:	74 20                	je     30e <phys-0xffcf2>
 2ee:	4c                   	dec    %esp
 2ef:	69 6e 75 78 20 33 2e 	imul   $0x2e332078,0x75(%esi),%ebp
 2f6:	33 2e                	xor    (%esi),%ebp
 2f8:	33 2d 37 29 00 00    	xor    0x2937,%ebp
 2fe:	47                   	inc    %edi
 2ff:	43                   	inc    %ebx
 300:	43                   	inc    %ebx
 301:	3a 20                	cmp    (%eax),%ah
 303:	28 47 4e             	sub    %al,0x4e(%edi)
 306:	55                   	push   %ebp
 307:	29 20                	sub    %esp,(%eax)
 309:	33 2e                	xor    (%esi),%ebp
 30b:	33 2e                	xor    (%esi),%ebp
 30d:	33 20                	xor    (%eax),%esp
 30f:	32 30                	xor    (%eax),%dh
 311:	30 34 30             	xor    %dh,(%eax,%esi,1)
 314:	34 31                	xor    $0x31,%al
 316:	32 20                	xor    (%eax),%ah
 318:	28 52 65             	sub    %dl,0x65(%edx)
 31b:	64 20 48 61          	and    %cl,%fs:0x61(%eax)
 31f:	74 20                	je     341 <phys-0xffcbf>
 321:	4c                   	dec    %esp
 322:	69 6e 75 78 20 33 2e 	imul   $0x2e332078,0x75(%esi),%ebp
 329:	33 2e                	xor    (%esi),%ebp
 32b:	33 2d 37 29 00 00    	xor    0x2937,%ebp
 331:	47                   	inc    %edi
 332:	43                   	inc    %ebx
 333:	43                   	inc    %ebx
 334:	3a 20                	cmp    (%eax),%ah
 336:	28 47 4e             	sub    %al,0x4e(%edi)
 339:	55                   	push   %ebp
 33a:	29 20                	sub    %esp,(%eax)
 33c:	33 2e                	xor    (%esi),%ebp
 33e:	33 2e                	xor    (%esi),%ebp
 340:	33 20                	xor    (%eax),%esp
 342:	32 30                	xor    (%eax),%dh
 344:	30 34 30             	xor    %dh,(%eax,%esi,1)
 347:	34 31                	xor    $0x31,%al
 349:	32 20                	xor    (%eax),%ah
 34b:	28 52 65             	sub    %dl,0x65(%edx)
 34e:	64 20 48 61          	and    %cl,%fs:0x61(%eax)
 352:	74 20                	je     374 <phys-0xffc8c>
 354:	4c                   	dec    %esp
 355:	69 6e 75 78 20 33 2e 	imul   $0x2e332078,0x75(%esi),%ebp
 35c:	33 2e                	xor    (%esi),%ebp
 35e:	33                   	.byte 0x33
 35f:	2d                   	.byte 0x2d
 360:	37                   	aaa    
 361:	29 00                	sub    %eax,(%eax)
